
eHaJo_EvalBoard_Demo.elf:     file format elf32-avr

Sections:
Idx Name          Size      VMA       LMA       File off  Algn
  0 .text         00000eb6  00000000  00000000  000000b4  2**1
                  CONTENTS, ALLOC, LOAD, READONLY, CODE
  1 .data         00000010  00800060  00000eb6  00000f6a  2**0
                  CONTENTS, ALLOC, LOAD, DATA
  2 .bss          0000000e  00800070  00800070  00000f7a  2**0
                  ALLOC
  3 .eeprom       000001eb  00810000  00810000  00000f7a  2**0
                  CONTENTS, ALLOC, LOAD, READONLY, DATA
  4 .stab         000007e0  00000000  00000000  00001168  2**2
                  CONTENTS, READONLY, DEBUGGING
  5 .stabstr      00000180  00000000  00000000  00001948  2**0
                  CONTENTS, READONLY, DEBUGGING
  6 .comment      0000002f  00000000  00000000  00001ac8  2**0
                  CONTENTS, READONLY
  7 .debug_aranges 00000668  00000000  00000000  00001af7  2**0
                  CONTENTS, READONLY, DEBUGGING
  8 .debug_info   00005961  00000000  00000000  0000215f  2**0
                  CONTENTS, READONLY, DEBUGGING
  9 .debug_abbrev 00001a03  00000000  00000000  00007ac0  2**0
                  CONTENTS, READONLY, DEBUGGING
 10 .debug_line   0000230f  00000000  00000000  000094c3  2**0
                  CONTENTS, READONLY, DEBUGGING
 11 .debug_frame  00000e14  00000000  00000000  0000b7d4  2**2
                  CONTENTS, READONLY, DEBUGGING
 12 .debug_str    00001681  00000000  00000000  0000c5e8  2**0
                  CONTENTS, READONLY, DEBUGGING
 13 .debug_loc    000036d3  00000000  00000000  0000dc69  2**0
                  CONTENTS, READONLY, DEBUGGING
 14 .debug_ranges 000004a0  00000000  00000000  0001133c  2**0
                  CONTENTS, READONLY, DEBUGGING

Disassembly of section .text:

00000000 <__vectors>:
   0:	f5 c1       	rjmp	.+1002   	; 0x3ec <__ctors_end>
   2:	0f c2       	rjmp	.+1054   	; 0x422 <__bad_interrupt>
   4:	0e c2       	rjmp	.+1052   	; 0x422 <__bad_interrupt>
   6:	0d c2       	rjmp	.+1050   	; 0x422 <__bad_interrupt>
   8:	0c c2       	rjmp	.+1048   	; 0x422 <__bad_interrupt>
   a:	0b c2       	rjmp	.+1046   	; 0x422 <__bad_interrupt>
   c:	77 c6       	rjmp	.+3310   	; 0xcfc <__vector_6>
   e:	9d c6       	rjmp	.+3386   	; 0xd4a <__vector_7>
  10:	08 c2       	rjmp	.+1040   	; 0x422 <__bad_interrupt>
  12:	07 c2       	rjmp	.+1038   	; 0x422 <__bad_interrupt>
  14:	06 c2       	rjmp	.+1036   	; 0x422 <__bad_interrupt>
  16:	c6 c6       	rjmp	.+3468   	; 0xda4 <__vector_11>
  18:	4a c6       	rjmp	.+3220   	; 0xcae <__vector_12>
  1a:	03 c2       	rjmp	.+1030   	; 0x422 <__bad_interrupt>
  1c:	02 c2       	rjmp	.+1028   	; 0x422 <__bad_interrupt>
  1e:	01 c2       	rjmp	.+1026   	; 0x422 <__bad_interrupt>
  20:	00 c2       	rjmp	.+1024   	; 0x422 <__bad_interrupt>
  22:	ff c1       	rjmp	.+1022   	; 0x422 <__bad_interrupt>
  24:	fe c1       	rjmp	.+1020   	; 0x422 <__bad_interrupt>

00000026 <__c.1844>:
  26:	0a 0d 00                                            ...

00000029 <__c.1861>:
  29:	20 00                                                .

0000002b <__c.1891>:
  2b:	44 61 6e 6b 65 2c 20 64 61 73 73 20 53 69 65 20     Danke, dass Sie 
  3b:	73 69 63 68 20 66 75 65 72 20 64 61 73 20 61 54     sich fuer das aT
  4b:	65 56 61 4c 2d 42 6f 61 72 64 20 76 6f 6e 20 65     eVaL-Board von e
  5b:	48 61 4a 6f 2e 64 65 20 65 6e 74 73 63 68 69 65     HaJo.de entschie
  6b:	64 65 6e 20 68 61 62 65 6e 2e 00                    den haben..

00000076 <__c.1895>:
  76:	42 69 74 74 65 20 70 72 75 65 66 65 6e 20 53 69     Bitte pruefen Si
  86:	65 20 6e 6f 63 68 20 65 69 6e 6d 61 6c 20 64 69     e noch einmal di
  96:	65 20 50 6c 61 74 69 6e 65 00                       e Platine.

000000a0 <__c.1902>:
  a0:	4d 69 74 20 64 69 65 73 65 6d 20 6b 6c 65 69 6e     Mit diesem klein
  b0:	65 6e 20 50 72 6f 67 72 61 6d 6d 20 6b 61 6e 6e     en Programm kann
  c0:	20 6e 75 6e 20 64 69 65 20 67 65 72 61 64 65 20      nun die gerade 
  d0:	61 75 66 67 65 62 61 75 74 65 20 48 61 72 64 77     aufgebaute Hardw
  e0:	61 72 65 20 67 65 74 65 73 74 65 74 77 65 72 64     are getestetwerd
  f0:	65 6e 2e 20 00                                      en. .

000000f5 <__c.1909>:
  f5:	45 73 20 77 65 72 64 65 6e 20 6e 75 6e 20 64 69     Es werden nun di
 105:	65 20 4c 45 44 31 20 75 6e 64 20 4c 45 44 32 20     e LED1 und LED2 
 115:	67 65 74 65 73 74 65 74 00                          getestet.

0000011e <__c.1911>:
 11e:	0a 0d 00                                            ...

00000121 <__c.1913>:
 121:	53 69 65 20 68 61 62 65 6e 20 64 69 65 20 4c 45     Sie haben die LE
 131:	44 31 20 75 6e 64 20 4c 45 44 32 20 65 72 66 6f     D1 und LED2 erfo
 141:	6c 67 72 65 69 63 68 20 67 65 74 65 73 74 65 74     lgreich getestet
 151:	2c 20 67 75 74 20 67 65 6d 61 63 68 74 2e 00        , gut gemacht..

00000160 <__c.1915>:
 160:	45 73 20 74 75 74 20 6d 69 72 20 6c 65 69 64 2c     Es tut mir leid,
 170:	20 61 62 65 72 20 64 69 65 20 4c 45 44 31 20 6f      aber die LED1 o
 180:	64 65 72 20 4c 45 44 32 20 6c 65 75 63 68 74 65     der LED2 leuchte
 190:	74 20 6e 69 63 68 74 00                             t nicht.

00000198 <__c.1938>:
 198:	53 69 65 20 68 61 62 65 6e 20 64 69 65 20 54 61     Sie haben die Ta
 1a8:	73 74 65 72 31 20 62 69 73 20 54 61 73 74 65 72     ster1 bis Taster
 1b8:	33 20 65 72 66 6f 6c 67 72 65 69 63 68 20 67 65     3 erfolgreich ge
 1c8:	74 65 73 74 65 74 2c 20 67 75 74 20 67 65 6d 61     testet, gut gema
 1d8:	63 68 74 2e 00                                      cht..

000001dd <__c.1940>:
 1dd:	45 73 20 74 75 74 20 6d 69 72 20 6c 65 69 64 2c     Es tut mir leid,
 1ed:	20 61 62 65 72 20 64 69 65 20 54 61 73 74 65 72      aber die Taster
 1fd:	20 61 72 62 65 69 74 65 6e 20 6e 69 63 68 74 20      arbeiten nicht 
 20d:	6b 6f 72 72 65 6b 74 2e 00                          korrekt..

00000216 <__c.1947>:
 216:	45 73 20 77 69 72 64 20 6e 75 6e 20 64 65 72 20     Es wird nun der 
 226:	4c 61 75 74 73 70 72 65 63 68 65 72 20 67 65 74     Lautsprecher get
 236:	65 73 74 65 74 00                                   estet.

0000023c <__c.1949>:
 23c:	53 69 65 20 68 61 62 65 6e 20 64 65 6e 20 4c 61     Sie haben den La
 24c:	75 74 73 70 72 65 63 68 65 72 20 65 72 66 6f 6c     utsprecher erfol
 25c:	67 72 65 69 63 68 20 67 65 74 65 73 74 65 74 00     greich getestet.

0000026c <__c.1951>:
 26c:	45 73 20 74 75 74 20 6d 69 72 20 6c 65 69 64 2c     Es tut mir leid,
 27c:	20 61 62 65 72 20 64 65 72 20 4c 61 75 74 73 70      aber der Lautsp
 28c:	72 65 63 68 65 72 20 73 63 68 65 69 6e 74 20 6b     recher scheint k
 29c:	65 69 6e 65 6e 20 54 6f 6e 20 76 6f 6e 20 73 69     einen Ton von si
 2ac:	63 68 20 7a 75 20 67 65 62 65 6e 2c 00              ch zu geben,.

000002b9 <__c.1955>:
 2b9:	45 73 20 77 69 72 64 20 6e 75 6e 20 64 61 73 20     Es wird nun das 
 2c9:	50 6f 74 65 6e 74 69 6f 6d 65 74 65 72 31 20 6d     Potentiometer1 m
 2d9:	69 74 20 64 65 72 20 42 65 73 63 68 72 69 66 74     it der Beschrift
 2e9:	75 6e 67 20 52 31 20 75 6e 64 20 64 61 73 00        ung R1 und das.

000002f8 <__c.1957>:
 2f8:	50 6f 74 65 6e 74 69 6f 6d 65 74 65 72 32 20 6d     Potentiometer2 m
 308:	69 74 20 64 65 72 20 42 65 73 63 68 72 69 66 74     it der Beschrift
 318:	75 6e 67 20 52 32 20 67 65 74 65 73 74 65 74 2e     ung R2 getestet.
	...

00000329 <__c.1959>:
 329:	45 73 20 74 75 74 20 6d 69 72 20 6c 65 69 64 2c     Es tut mir leid,
 339:	20 61 62 65 72 20 64 65 72 20 50 6f 74 65 6e 74      aber der Potent
 349:	69 6f 6e 65 74 65 72 31 20 6f 64 65 72 20 32 20     ioneter1 oder 2 
 359:	68 61 62 65 6e 20 65 69 6e 65 6e 20 46 65 68 6c     haben einen Fehl
 369:	65 72 2c 00                                         er,.

0000036d <__c.1971>:
 36d:	31 00                                               1.

0000036f <__c.1973>:
 36f:	32 00                                               2.

00000371 <__c.1978>:
 371:	31 00                                               1.

00000373 <__c.1980>:
 373:	32 00                                               2.

00000375 <__c.1985>:
 375:	31 00                                               1.

00000377 <__c.1987>:
 377:	32 00                                               2.

00000379 <__c.1989>:
 379:	31 00                                               1.

0000037b <__c.1991>:
 37b:	32 00                                               2.

0000037d <__c.1996>:
 37d:	31 00                                               1.

0000037f <__c.1998>:
 37f:	32 00                                               2.

00000381 <__c.2003>:
 381:	31 00                                               1.

00000383 <__c.2005>:
 383:	32 00                                               2.

00000385 <__c.2009>:
 385:	31 00                                               1.

00000387 <__c.2013>:
 387:	32 00                                               2.

00000389 <__c.2017>:
 389:	33 00                                               3.

0000038b <__c.2021>:
 38b:	3a 20 4f 6b 61 79 00                                : Okay.

00000392 <__c.2025>:
 392:	54 61 73 74 65 72 00                                Taster.

00000399 <__c.2029>:
 399:	3a 20 46 65 68 6c 65 72 00                          : Fehler.

000003a2 <__c.2033>:
 3a2:	4c 65 64 00                                         Led.

000003a6 <__c.2045>:
 3a6:	5a 75 73 61 6d 6d 65 6e 66 61 73 73 75 6e 67 20     Zusammenfassung 
 3b6:	64 65 73 20 54 65 73 74 6c 61 75 66 73 00           des Testlaufs.

000003c4 <__c.2047>:
 3c4:	4c 61 75 74 73 70 72 65 63 68 65 72 3a 20 4f 6b     Lautsprecher: Ok
 3d4:	61 79 00                                            ay.

000003d7 <__c.2049>:
 3d7:	4c 61 75 74 73 70 72 65 63 68 65 72 3a 20 46 65     Lautsprecher: Fe
 3e7:	68 6c 65 72 00                                      hler.

000003ec <__ctors_end>:
 3ec:	11 24       	eor	r1, r1
 3ee:	1f be       	out	0x3f, r1	; 63
 3f0:	cf e5       	ldi	r28, 0x5F	; 95
 3f2:	d4 e0       	ldi	r29, 0x04	; 4
 3f4:	de bf       	out	0x3e, r29	; 62
 3f6:	cd bf       	out	0x3d, r28	; 61

000003f8 <__do_copy_data>:
 3f8:	10 e0       	ldi	r17, 0x00	; 0
 3fa:	a0 e6       	ldi	r26, 0x60	; 96
 3fc:	b0 e0       	ldi	r27, 0x00	; 0
 3fe:	e6 eb       	ldi	r30, 0xB6	; 182
 400:	fe e0       	ldi	r31, 0x0E	; 14
 402:	02 c0       	rjmp	.+4      	; 0x408 <__do_copy_data+0x10>
 404:	05 90       	lpm	r0, Z+
 406:	0d 92       	st	X+, r0
 408:	a0 37       	cpi	r26, 0x70	; 112
 40a:	b1 07       	cpc	r27, r17
 40c:	d9 f7       	brne	.-10     	; 0x404 <__do_copy_data+0xc>

0000040e <__do_clear_bss>:
 40e:	20 e0       	ldi	r18, 0x00	; 0
 410:	a0 e7       	ldi	r26, 0x70	; 112
 412:	b0 e0       	ldi	r27, 0x00	; 0
 414:	01 c0       	rjmp	.+2      	; 0x418 <.do_clear_bss_start>

00000416 <.do_clear_bss_loop>:
 416:	1d 92       	st	X+, r1

00000418 <.do_clear_bss_start>:
 418:	ae 37       	cpi	r26, 0x7E	; 126
 41a:	b2 07       	cpc	r27, r18
 41c:	e1 f7       	brne	.-8      	; 0x416 <.do_clear_bss_loop>
 41e:	f3 d3       	rcall	.+2022   	; 0xc06 <main>
 420:	48 c5       	rjmp	.+2704   	; 0xeb2 <_exit>

00000422 <__bad_interrupt>:
 422:	0b c4       	rjmp	.+2070   	; 0xc3a <__vector_default>

00000424 <adc_init>:
 424:	84 b3       	in	r24, 0x14	; 20
 426:	8c 7f       	andi	r24, 0xFC	; 252
 428:	84 bb       	out	0x14, r24	; 20
 42a:	85 b3       	in	r24, 0x15	; 21
 42c:	8c 7f       	andi	r24, 0xFC	; 252
 42e:	85 bb       	out	0x15, r24	; 21
 430:	3e 9a       	sbi	0x07, 6	; 7
 432:	86 b1       	in	r24, 0x06	; 6
 434:	83 60       	ori	r24, 0x03	; 3
 436:	86 b9       	out	0x06, r24	; 6
 438:	37 9a       	sbi	0x06, 7	; 6
 43a:	36 9a       	sbi	0x06, 6	; 6
 43c:	36 99       	sbic	0x06, 6	; 6
 43e:	fe cf       	rjmp	.-4      	; 0x43c <adc_init+0x18>
 440:	08 95       	ret

00000442 <Get_ADC_Value>:
 442:	97 b1       	in	r25, 0x07	; 7
 444:	90 7f       	andi	r25, 0xF0	; 240
 446:	97 b9       	out	0x07, r25	; 7
 448:	97 b1       	in	r25, 0x07	; 7
 44a:	8f 70       	andi	r24, 0x0F	; 15
 44c:	89 2b       	or	r24, r25
 44e:	87 b9       	out	0x07, r24	; 7
 450:	36 9a       	sbi	0x06, 6	; 6
 452:	36 99       	sbic	0x06, 6	; 6
 454:	fe cf       	rjmp	.-4      	; 0x452 <Get_ADC_Value+0x10>
 456:	24 b1       	in	r18, 0x04	; 4
 458:	35 b1       	in	r19, 0x05	; 5
 45a:	c9 01       	movw	r24, r18
 45c:	08 95       	ret

0000045e <read_from_uart>:
void print_new_line(void);


void read_from_uart()
{
	recived_char=UDR;
 45e:	8c b1       	in	r24, 0x0c	; 12
 460:	80 93 70 00 	sts	0x0070, r24
 464:	08 95       	ret

00000466 <wait_for_enter>:
}
void wait_for_enter()
{
	recived_char='\0';
 466:	10 92 70 00 	sts	0x0070, r1
	while(recived_char!=13)
 46a:	80 91 70 00 	lds	r24, 0x0070
 46e:	8d 30       	cpi	r24, 0x0D	; 13
 470:	e1 f7       	brne	.-8      	; 0x46a <wait_for_enter+0x4>
	{
		
	}
}
 472:	08 95       	ret

00000474 <wait_for_key>:
uint8_t wait_for_key()
{
	recived_char=255;
 474:	8f ef       	ldi	r24, 0xFF	; 255
 476:	80 93 70 00 	sts	0x0070, r24
	while(255==recived_char)
 47a:	80 91 70 00 	lds	r24, 0x0070
 47e:	8f 3f       	cpi	r24, 0xFF	; 255
 480:	e1 f3       	breq	.-8      	; 0x47a <wait_for_key+0x6>
	{
		
	}
	return recived_char;
 482:	80 91 70 00 	lds	r24, 0x0070
}
 486:	08 95       	ret

00000488 <ja_oder_nein>:
uint8_t ja_oder_nein()
{
	recived_char='\0';
 488:	10 92 70 00 	sts	0x0070, r1
	while((recived_char!='j')&&(recived_char!='n'))
 48c:	80 91 70 00 	lds	r24, 0x0070
 490:	8a 36       	cpi	r24, 0x6A	; 106
 492:	21 f0       	breq	.+8      	; 0x49c <ja_oder_nein+0x14>
 494:	80 91 70 00 	lds	r24, 0x0070
 498:	8e 36       	cpi	r24, 0x6E	; 110
 49a:	c1 f7       	brne	.-16     	; 0x48c <ja_oder_nein+0x4>
	{
		
	}
	usart_putc(recived_char);
 49c:	80 91 70 00 	lds	r24, 0x0070
 4a0:	71 d4       	rcall	.+2274   	; 0xd84 <usart_putc>
	return recived_char;
 4a2:	80 91 70 00 	lds	r24, 0x0070
}
 4a6:	08 95       	ret

000004a8 <print_new_line>:
	}
	print_new_line();
}
void print_new_line()
{
	usart_putp(PSTR("\n\r"));
 4a8:	86 e2       	ldi	r24, 0x26	; 38
 4aa:	90 e0       	ldi	r25, 0x00	; 0
 4ac:	ed c4       	rjmp	.+2522   	; 0xe88 <usart_putp>

000004ae <print_full_line_error>:
void print_weiter_mit_enter_error()
{
	print_weiter_mit_enter_char('!');
}
void print_full_line_error()
{
 4ae:	cf 93       	push	r28
 4b0:	c0 e5       	ldi	r28, 0x50	; 80
	for(uint8_t i=0;i<80;i++)
	{
		usart_putc('!');
 4b2:	81 e2       	ldi	r24, 0x21	; 33
 4b4:	67 d4       	rcall	.+2254   	; 0xd84 <usart_putc>
 4b6:	c1 50       	subi	r28, 0x01	; 1
{
	print_weiter_mit_enter_char('!');
}
void print_full_line_error()
{
	for(uint8_t i=0;i<80;i++)
 4b8:	e1 f7       	brne	.-8      	; 0x4b2 <print_full_line_error+0x4>
	{
		usart_putc('!');
	}
	print_new_line();
}
 4ba:	cf 91       	pop	r28
{
	for(uint8_t i=0;i<80;i++)
	{
		usart_putc('!');
	}
	print_new_line();
 4bc:	f5 cf       	rjmp	.-22     	; 0x4a8 <print_new_line>

000004be <print_weiter_mit_enter_char>:
	print_empty_line_char('!');
}

const char string4[] EEMEM = "Weiter mit Enter";
void print_weiter_mit_enter_char(char x)
{
 4be:	cf 93       	push	r28
 4c0:	df 93       	push	r29
 4c2:	d8 2f       	mov	r29, r24
	usart_putc(x);
 4c4:	5f d4       	rcall	.+2238   	; 0xd84 <usart_putc>
 4c6:	cc e1       	ldi	r28, 0x1C	; 28
	for(uint8_t i=0;i<28;i++)
	{
		usart_putc(' ');
 4c8:	80 e2       	ldi	r24, 0x20	; 32
 4ca:	5c d4       	rcall	.+2232   	; 0xd84 <usart_putc>
 4cc:	c1 50       	subi	r28, 0x01	; 1

const char string4[] EEMEM = "Weiter mit Enter";
void print_weiter_mit_enter_char(char x)
{
	usart_putc(x);
	for(uint8_t i=0;i<28;i++)
 4ce:	e1 f7       	brne	.-8      	; 0x4c8 <print_weiter_mit_enter_char+0xa>
	{
		usart_putc(' ');
	}
	//usart_putp(PSTR("Weiter mit Enter"));
	usart_pute(string4);
 4d0:	8a ed       	ldi	r24, 0xDA	; 218
 4d2:	91 e0       	ldi	r25, 0x01	; 1
 4d4:	cc d4       	rcall	.+2456   	; 0xe6e <usart_pute>
 4d6:	c2 e2       	ldi	r28, 0x22	; 34
	for(uint8_t i=0;i<34;i++)
	{
		usart_putc(' ');
 4d8:	80 e2       	ldi	r24, 0x20	; 32
 4da:	54 d4       	rcall	.+2216   	; 0xd84 <usart_putc>
 4dc:	c1 50       	subi	r28, 0x01	; 1
	{
		usart_putc(' ');
	}
	//usart_putp(PSTR("Weiter mit Enter"));
	usart_pute(string4);
	for(uint8_t i=0;i<34;i++)
 4de:	e1 f7       	brne	.-8      	; 0x4d8 <print_weiter_mit_enter_char+0x1a>
	{
		usart_putc(' ');
	}
	usart_putc(x);
 4e0:	8d 2f       	mov	r24, r29
 4e2:	50 d4       	rcall	.+2208   	; 0xd84 <usart_putc>
	print_new_line();
}
 4e4:	df 91       	pop	r29
 4e6:	cf 91       	pop	r28
	for(uint8_t i=0;i<34;i++)
	{
		usart_putc(' ');
	}
	usart_putc(x);
	print_new_line();
 4e8:	df cf       	rjmp	.-66     	; 0x4a8 <print_new_line>

000004ea <print_weiter_mit_enter_error>:
{
	print_weiter_mit_enter_char('#');
}
void print_weiter_mit_enter_error()
{
	print_weiter_mit_enter_char('!');
 4ea:	81 e2       	ldi	r24, 0x21	; 33
 4ec:	e8 cf       	rjmp	.-48     	; 0x4be <print_weiter_mit_enter_char>

000004ee <print_weiter_mit_enter>:
	usart_putc(x);
	print_new_line();
}
void print_weiter_mit_enter()
{
	print_weiter_mit_enter_char('#');
 4ee:	83 e2       	ldi	r24, 0x23	; 35
 4f0:	e6 cf       	rjmp	.-52     	; 0x4be <print_weiter_mit_enter_char>

000004f2 <print_empty_line_char>:
		usart_putc('#');
	}
	print_new_line();
}
void print_empty_line_char(char x)
{
 4f2:	cf 93       	push	r28
 4f4:	df 93       	push	r29
 4f6:	d8 2f       	mov	r29, r24
	usart_putc(x);
 4f8:	45 d4       	rcall	.+2186   	; 0xd84 <usart_putc>
 4fa:	ce e4       	ldi	r28, 0x4E	; 78
	for(uint8_t i=0;i<78;i++)
	{
		usart_putc(' ');
 4fc:	80 e2       	ldi	r24, 0x20	; 32
 4fe:	42 d4       	rcall	.+2180   	; 0xd84 <usart_putc>
 500:	c1 50       	subi	r28, 0x01	; 1
	print_new_line();
}
void print_empty_line_char(char x)
{
	usart_putc(x);
	for(uint8_t i=0;i<78;i++)
 502:	e1 f7       	brne	.-8      	; 0x4fc <print_empty_line_char+0xa>
	{
		usart_putc(' ');
	}
	usart_putc(x);
 504:	8d 2f       	mov	r24, r29
 506:	3e d4       	rcall	.+2172   	; 0xd84 <usart_putc>
	print_new_line();
}
 508:	df 91       	pop	r29
 50a:	cf 91       	pop	r28
	for(uint8_t i=0;i<78;i++)
	{
		usart_putc(' ');
	}
	usart_putc(x);
	print_new_line();
 50c:	cd cf       	rjmp	.-102    	; 0x4a8 <print_new_line>

0000050e <print_empty_line_error>:
{
	print_empty_line_char('#');
}
void print_empty_line_error()
{
	print_empty_line_char('!');
 50e:	81 e2       	ldi	r24, 0x21	; 33
 510:	f0 cf       	rjmp	.-32     	; 0x4f2 <print_empty_line_char>

00000512 <print_empty_line>:
	usart_putc(x);
	print_new_line();
}
void print_empty_line()
{
	print_empty_line_char('#');
 512:	83 e2       	ldi	r24, 0x23	; 35
 514:	ee cf       	rjmp	.-36     	; 0x4f2 <print_empty_line_char>

00000516 <print_full_line>:
	}
	usart_putc(recived_char);
	return recived_char;
}
void print_full_line()
{
 516:	cf 93       	push	r28
 518:	c0 e5       	ldi	r28, 0x50	; 80
	for(uint8_t i=0;i<80;i++)
	{
		usart_putc('#');
 51a:	83 e2       	ldi	r24, 0x23	; 35
 51c:	33 d4       	rcall	.+2150   	; 0xd84 <usart_putc>
 51e:	c1 50       	subi	r28, 0x01	; 1
	usart_putc(recived_char);
	return recived_char;
}
void print_full_line()
{
	for(uint8_t i=0;i<80;i++)
 520:	e1 f7       	brne	.-8      	; 0x51a <print_full_line+0x4>
	{
		usart_putc('#');
	}
	print_new_line();
}
 522:	cf 91       	pop	r28
{
	for(uint8_t i=0;i<80;i++)
	{
		usart_putc('#');
	}
	print_new_line();
 524:	c1 cf       	rjmp	.-126    	; 0x4a8 <print_new_line>

00000526 <print_empty_lines>:
	usart_putp(PSTR("\n\r"));
}
void print_empty_lines()
{
	//3 neue Zeile
	print_new_line();
 526:	c0 df       	rcall	.-128    	; 0x4a8 <print_new_line>
	print_new_line();
 528:	bf df       	rcall	.-130    	; 0x4a8 <print_new_line>
	print_new_line();
 52a:	be cf       	rjmp	.-132    	; 0x4a8 <print_new_line>

0000052c <print_okay>:
const char string1[] EEMEM = " Okay\n\r";

void print_okay()
{
	//usart_putp(PSTR(" Okay\n\r"));
	usart_pute(string1);
 52c:	82 ed       	ldi	r24, 0xD2	; 210
 52e:	91 e0       	ldi	r25, 0x01	; 1
 530:	9e c4       	rjmp	.+2364   	; 0xe6e <usart_pute>

00000532 <print_fehler_bei_Taste>:

const char string2[] EEMEM = " Fehler bei Taste";
void print_fehler_bei_Taste()
{
	 //usart_putp(PSTR(" Fehler bei Taste"));
	 usart_pute(string2);
 532:	80 ec       	ldi	r24, 0xC0	; 192
 534:	91 e0       	ldi	r25, 0x01	; 1
 536:	9b c4       	rjmp	.+2358   	; 0xe6e <usart_pute>

00000538 <print_text_to_line_end>:
}

const char string3[] EEMEM = " ";

void print_text_to_line_end(char Borderchar)
{
 538:	cf 93       	push	r28
 53a:	c8 2f       	mov	r28, r24
	//usart_putp(PSTR(" "));
	usart_pute(string3);
 53c:	8e eb       	ldi	r24, 0xBE	; 190
 53e:	91 e0       	ldi	r25, 0x01	; 1
 540:	96 d4       	rcall	.+2348   	; 0xe6e <usart_pute>
	usart_putc(Borderchar);
 542:	8c 2f       	mov	r24, r28
	
}
 544:	cf 91       	pop	r28

void print_text_to_line_end(char Borderchar)
{
	//usart_putp(PSTR(" "));
	usart_pute(string3);
	usart_putc(Borderchar);
 546:	1e c4       	rjmp	.+2108   	; 0xd84 <usart_putc>

00000548 <print_text_to_line_start>:
	
}

void print_text_to_line_start(char Borderchar)
{
	usart_putc(Borderchar);
 548:	1d d4       	rcall	.+2106   	; 0xd84 <usart_putc>
	usart_putp(PSTR(" "));
 54a:	89 e2       	ldi	r24, 0x29	; 41
 54c:	90 e0       	ldi	r25, 0x00	; 0
 54e:	9c c4       	rjmp	.+2360   	; 0xe88 <usart_putp>

00000550 <fill_line>:
}


void fill_line(char Borderchar)
{
 550:	cf 93       	push	r28
 552:	c8 2f       	mov	r28, r24
	//Einmal die Zeile zuendezeichen
	if(zeilenposition!=0)
 554:	80 91 71 00 	lds	r24, 0x0071
 558:	81 11       	cpse	r24, r1
 55a:	08 c0       	rjmp	.+16     	; 0x56c <fill_line+0x1c>
 55c:	0e c0       	rjmp	.+28     	; 0x57a <fill_line+0x2a>
	{
		while(zeilenposition<78)
		{
			usart_putc(' ');
 55e:	80 e2       	ldi	r24, 0x20	; 32
 560:	11 d4       	rcall	.+2082   	; 0xd84 <usart_putc>
			zeilenposition++;
 562:	90 91 71 00 	lds	r25, 0x0071
 566:	9f 5f       	subi	r25, 0xFF	; 255
 568:	90 93 71 00 	sts	0x0071, r25
void fill_line(char Borderchar)
{
	//Einmal die Zeile zuendezeichen
	if(zeilenposition!=0)
	{
		while(zeilenposition<78)
 56c:	80 91 71 00 	lds	r24, 0x0071
 570:	8e 34       	cpi	r24, 0x4E	; 78
 572:	a8 f3       	brcs	.-22     	; 0x55e <fill_line+0xe>
		{
			usart_putc(' ');
			zeilenposition++;
		}
		print_text_to_line_end(Borderchar);
 574:	8c 2f       	mov	r24, r28
 576:	e0 df       	rcall	.-64     	; 0x538 <print_text_to_line_end>
		print_new_line();
 578:	97 df       	rcall	.-210    	; 0x4a8 <print_new_line>
	}
	zeilenposition=0;
 57a:	10 92 71 00 	sts	0x0071, r1
}
 57e:	cf 91       	pop	r28
 580:	08 95       	ret

00000582 <print_text>:



void print_text(const char *string,char Borderchar, char Stringtype)
{
 582:	ff 92       	push	r15
 584:	0f 93       	push	r16
 586:	1f 93       	push	r17
 588:	cf 93       	push	r28
 58a:	df 93       	push	r29
 58c:	ec 01       	movw	r28, r24
 58e:	f6 2e       	mov	r15, r22
 590:	04 2f       	mov	r16, r20
	uint8_t zeichen='\0';
	if((Stringtype=='e')||(Stringtype=='E'))
 592:	45 36       	cpi	r20, 0x65	; 101
 594:	11 f0       	breq	.+4      	; 0x59a <print_text+0x18>
 596:	45 34       	cpi	r20, 0x45	; 69
 598:	21 f4       	brne	.+8      	; 0x5a2 <print_text+0x20>
	{
		zeichen=eeprom_read_byte((const uint8_t*)string);
 59a:	ce 01       	movw	r24, r28
 59c:	82 d4       	rcall	.+2308   	; 0xea2 <__eerd_byte_m8a>
 59e:	18 2f       	mov	r17, r24
 5a0:	33 c0       	rjmp	.+102    	; 0x608 <print_text+0x86>
	}
	else
	{
		zeichen=pgm_read_byte (string);	
 5a2:	fc 01       	movw	r30, r24
 5a4:	14 91       	lpm	r17, Z
 5a6:	30 c0       	rjmp	.+96     	; 0x608 <print_text+0x86>
	}
	
	while(zeichen!='\0')
	{
		
		if((zeilenposition==0)||(zeilenposition==77))
 5a8:	80 91 71 00 	lds	r24, 0x0071
 5ac:	88 23       	and	r24, r24
 5ae:	21 f0       	breq	.+8      	; 0x5b8 <print_text+0x36>
 5b0:	80 91 71 00 	lds	r24, 0x0071
 5b4:	8d 34       	cpi	r24, 0x4D	; 77
 5b6:	b1 f4       	brne	.+44     	; 0x5e4 <print_text+0x62>
		{
			if(zeilenposition==77)
 5b8:	80 91 71 00 	lds	r24, 0x0071
 5bc:	8d 34       	cpi	r24, 0x4D	; 77
 5be:	19 f4       	brne	.+6      	; 0x5c6 <print_text+0x44>
			{
				print_text_to_line_end(Borderchar);
 5c0:	8f 2d       	mov	r24, r15
 5c2:	ba df       	rcall	.-140    	; 0x538 <print_text_to_line_end>
 5c4:	02 c0       	rjmp	.+4      	; 0x5ca <print_text+0x48>
			}
			else
			{
				print_text_to_line_start(Borderchar);
 5c6:	8f 2d       	mov	r24, r15
 5c8:	bf df       	rcall	.-130    	; 0x548 <print_text_to_line_start>
			}
			
			
			zeilenposition+=1;
 5ca:	90 91 71 00 	lds	r25, 0x0071
 5ce:	9f 5f       	subi	r25, 0xFF	; 255
 5d0:	90 93 71 00 	sts	0x0071, r25
			if(zeilenposition==78)
 5d4:	80 91 71 00 	lds	r24, 0x0071
 5d8:	8e 34       	cpi	r24, 0x4E	; 78
 5da:	b1 f4       	brne	.+44     	; 0x608 <print_text+0x86>
			{
				print_new_line();
 5dc:	65 df       	rcall	.-310    	; 0x4a8 <print_new_line>
				zeilenposition=0;
 5de:	10 92 71 00 	sts	0x0071, r1
 5e2:	12 c0       	rjmp	.+36     	; 0x608 <print_text+0x86>
			}
		}
		else
		{
			if((Stringtype=='e')||(Stringtype=='E'))
 5e4:	05 36       	cpi	r16, 0x65	; 101
 5e6:	11 f0       	breq	.+4      	; 0x5ec <print_text+0x6a>
 5e8:	05 34       	cpi	r16, 0x45	; 69
 5ea:	21 f4       	brne	.+8      	; 0x5f4 <print_text+0x72>
			{
				zeichen=eeprom_read_byte((const uint8_t*)string);
 5ec:	ce 01       	movw	r24, r28
 5ee:	59 d4       	rcall	.+2226   	; 0xea2 <__eerd_byte_m8a>
 5f0:	18 2f       	mov	r17, r24
 5f2:	02 c0       	rjmp	.+4      	; 0x5f8 <print_text+0x76>
			}
			else
			{
				zeichen=pgm_read_byte (string);
 5f4:	fe 01       	movw	r30, r28
 5f6:	14 91       	lpm	r17, Z
			}
			usart_putc(zeichen);
 5f8:	81 2f       	mov	r24, r17
 5fa:	c4 d3       	rcall	.+1928   	; 0xd84 <usart_putc>
			string++;
 5fc:	21 96       	adiw	r28, 0x01	; 1
			zeilenposition++;
 5fe:	90 91 71 00 	lds	r25, 0x0071
 602:	9f 5f       	subi	r25, 0xFF	; 255
 604:	90 93 71 00 	sts	0x0071, r25
	else
	{
		zeichen=pgm_read_byte (string);	
	}
	
	while(zeichen!='\0')
 608:	11 11       	cpse	r17, r1
 60a:	ce cf       	rjmp	.-100    	; 0x5a8 <print_text+0x26>
		}
		
		
		
	}
}
 60c:	df 91       	pop	r29
 60e:	cf 91       	pop	r28
 610:	1f 91       	pop	r17
 612:	0f 91       	pop	r16
 614:	ff 90       	pop	r15
 616:	08 95       	ret

00000618 <print_text_to_line>:


void print_text_to_line(const char *string, char Borderchar, char Pointertype)
{
 618:	ef 92       	push	r14
 61a:	ff 92       	push	r15
 61c:	1f 93       	push	r17
 61e:	cf 93       	push	r28
 620:	df 93       	push	r29
 622:	1f 92       	push	r1
 624:	cd b7       	in	r28, 0x3d	; 61
 626:	de b7       	in	r29, 0x3e	; 62
 628:	7c 01       	movw	r14, r24
 62a:	16 2f       	mov	r17, r22
	if(zeilenposition!=0)
 62c:	80 91 71 00 	lds	r24, 0x0071
 630:	88 23       	and	r24, r24
 632:	21 f0       	breq	.+8      	; 0x63c <print_text_to_line+0x24>
	{
		fill_line(Borderchar);
 634:	86 2f       	mov	r24, r22
 636:	49 83       	std	Y+1, r20	; 0x01
 638:	8b df       	rcall	.-234    	; 0x550 <fill_line>
 63a:	49 81       	ldd	r20, Y+1	; 0x01
	}
	zeilenposition=0;
 63c:	10 92 71 00 	sts	0x0071, r1
	print_text(string,Borderchar,Pointertype);
 640:	61 2f       	mov	r22, r17
 642:	c7 01       	movw	r24, r14
 644:	9e df       	rcall	.-196    	; 0x582 <print_text>
	
	fill_line(Borderchar);
 646:	81 2f       	mov	r24, r17
	
	
}
 648:	0f 90       	pop	r0
 64a:	df 91       	pop	r29
 64c:	cf 91       	pop	r28
 64e:	1f 91       	pop	r17
 650:	ff 90       	pop	r15
 652:	ef 90       	pop	r14
		fill_line(Borderchar);
	}
	zeilenposition=0;
	print_text(string,Borderchar,Pointertype);
	
	fill_line(Borderchar);
 654:	7d cf       	rjmp	.-262    	; 0x550 <fill_line>

00000656 <print_ehajo_danke>:
	
}

void print_ehajo_danke()
{
	print_text_to_line(PSTR("Danke, dass Sie sich fuer das aTeVaL-Board von eHaJo.de entschieden haben."),'#','F');
 656:	46 e4       	ldi	r20, 0x46	; 70
 658:	63 e2       	ldi	r22, 0x23	; 35
 65a:	8b e2       	ldi	r24, 0x2B	; 43
 65c:	90 e0       	ldi	r25, 0x00	; 0
 65e:	dc cf       	rjmp	.-72     	; 0x618 <print_text_to_line>

00000660 <print_pruefen_sie_die_Platine>:
}

void print_pruefen_sie_die_Platine()
{
	print_text_to_line(PSTR("Bitte pruefen Sie noch einmal die Platine"),'!','F');
 660:	46 e4       	ldi	r20, 0x46	; 70
 662:	61 e2       	ldi	r22, 0x21	; 33
 664:	86 e7       	ldi	r24, 0x76	; 118
 666:	90 e0       	ldi	r25, 0x00	; 0
 668:	d7 cf       	rjmp	.-82     	; 0x618 <print_text_to_line>

0000066a <print_potentiometer>:

const char string5[] EEMEM = "Potentiometer";
void print_potentiometer()
{
	//usart_putp(PSTR("Potentiometer"));
	usart_pute(string5);
 66a:	80 eb       	ldi	r24, 0xB0	; 176
 66c:	91 e0       	ldi	r25, 0x01	; 1
 66e:	ff c3       	rjmp	.+2046   	; 0xe6e <usart_pute>

00000670 <Test_Leds>:
}

const char string6[] EEMEM = "Leuchtet LED1 jetzt? (j/n):";
const char string7[] EEMEM = "Leuchtet LED2 jetzt? (j/n):";
void Test_Leds()
{
 670:	cf 93       	push	r28
	uint8_t errorcount=0;
	print_full_line();
 672:	51 df       	rcall	.-350    	; 0x516 <print_full_line>
    print_text_to_line(PSTR("Es werden nun die LED1 und LED2 getestet"),'#','F');
 674:	46 e4       	ldi	r20, 0x46	; 70
 676:	63 e2       	ldi	r22, 0x23	; 35
 678:	85 ef       	ldi	r24, 0xF5	; 245
 67a:	90 e0       	ldi	r25, 0x00	; 0
 67c:	cd df       	rcall	.-102    	; 0x618 <print_text_to_line>
	print_full_line();
 67e:	4b df       	rcall	.-362    	; 0x516 <print_full_line>
	print_empty_lines();
 680:	52 df       	rcall	.-348    	; 0x526 <print_empty_lines>
	Set_Led1(1);
 682:	81 e0       	ldi	r24, 0x01	; 1
 684:	ed d2       	rcall	.+1498   	; 0xc60 <Set_Led1>
	//usart_putp(PSTR("Leuchtet LED1 jetzt? (j/n):"));
	usart_pute(string6);
 686:	84 e9       	ldi	r24, 0x94	; 148
 688:	91 e0       	ldi	r25, 0x01	; 1
 68a:	f1 d3       	rcall	.+2018   	; 0xe6e <usart_pute>
	if(ja_oder_nein()=='n')
 68c:	fd de       	rcall	.-518    	; 0x488 <ja_oder_nein>
 68e:	8e 36       	cpi	r24, 0x6E	; 110
 690:	21 f0       	breq	.+8      	; 0x69a <Test_Leds+0x2a>
	{
		errorcount++;
	}
	else
	{
		led1_okay=Okay;
 692:	10 92 64 00 	sts	0x0064, r1

const char string6[] EEMEM = "Leuchtet LED1 jetzt? (j/n):";
const char string7[] EEMEM = "Leuchtet LED2 jetzt? (j/n):";
void Test_Leds()
{
	uint8_t errorcount=0;
 696:	c0 e0       	ldi	r28, 0x00	; 0
 698:	01 c0       	rjmp	.+2      	; 0x69c <Test_Leds+0x2c>
	Set_Led1(1);
	//usart_putp(PSTR("Leuchtet LED1 jetzt? (j/n):"));
	usart_pute(string6);
	if(ja_oder_nein()=='n')
	{
		errorcount++;
 69a:	c1 e0       	ldi	r28, 0x01	; 1
	}
	else
	{
		led1_okay=Okay;
	}
	usart_putp(PSTR("\n\r"));
 69c:	8e e1       	ldi	r24, 0x1E	; 30
 69e:	91 e0       	ldi	r25, 0x01	; 1
 6a0:	f3 d3       	rcall	.+2022   	; 0xe88 <usart_putp>
	Set_Led1(0);
 6a2:	80 e0       	ldi	r24, 0x00	; 0
 6a4:	dd d2       	rcall	.+1466   	; 0xc60 <Set_Led1>
	
	Set_Led2(1);
 6a6:	81 e0       	ldi	r24, 0x01	; 1
 6a8:	e1 d2       	rcall	.+1474   	; 0xc6c <Set_Led2>
	//usart_putp(PSTR("Leuchtet LED2 jetzt? (j/n):"));
	usart_pute(string7);
 6aa:	88 e7       	ldi	r24, 0x78	; 120
 6ac:	91 e0       	ldi	r25, 0x01	; 1
 6ae:	df d3       	rcall	.+1982   	; 0xe6e <usart_pute>
	
	if(ja_oder_nein()=='n')
 6b0:	eb de       	rcall	.-554    	; 0x488 <ja_oder_nein>
 6b2:	8e 36       	cpi	r24, 0x6E	; 110
 6b4:	11 f4       	brne	.+4      	; 0x6ba <Test_Leds+0x4a>
	{
		errorcount++;
 6b6:	cf 5f       	subi	r28, 0xFF	; 255
 6b8:	02 c0       	rjmp	.+4      	; 0x6be <Test_Leds+0x4e>
	}
	else
	{
		led2_okay=Okay;
 6ba:	10 92 63 00 	sts	0x0063, r1
	}
	print_new_line();
 6be:	f4 de       	rcall	.-536    	; 0x4a8 <print_new_line>
	Set_Led2(0);
 6c0:	80 e0       	ldi	r24, 0x00	; 0
 6c2:	d4 d2       	rcall	.+1448   	; 0xc6c <Set_Led2>
	print_empty_lines();
 6c4:	30 df       	rcall	.-416    	; 0x526 <print_empty_lines>
	if(errorcount==0)
 6c6:	c1 11       	cpse	r28, r1
 6c8:	0a c0       	rjmp	.+20     	; 0x6de <Test_Leds+0x6e>
	{
		print_full_line();
 6ca:	25 df       	rcall	.-438    	; 0x516 <print_full_line>
		print_empty_line();
 6cc:	22 df       	rcall	.-444    	; 0x512 <print_empty_line>
		print_text_to_line(PSTR("Sie haben die LED1 und LED2 erfolgreich getestet, gut gemacht."),'#','F');
 6ce:	46 e4       	ldi	r20, 0x46	; 70
 6d0:	63 e2       	ldi	r22, 0x23	; 35
 6d2:	81 e2       	ldi	r24, 0x21	; 33
 6d4:	91 e0       	ldi	r25, 0x01	; 1
 6d6:	a0 df       	rcall	.-192    	; 0x618 <print_text_to_line>
		print_empty_line();
 6d8:	1c df       	rcall	.-456    	; 0x512 <print_empty_line>
		print_full_line();
 6da:	1d df       	rcall	.-454    	; 0x516 <print_full_line>
 6dc:	0a c0       	rjmp	.+20     	; 0x6f2 <Test_Leds+0x82>
		print_empty_lines();
	}
	else
	{
		print_full_line_error();
 6de:	e7 de       	rcall	.-562    	; 0x4ae <print_full_line_error>
		print_empty_line_error();
 6e0:	16 df       	rcall	.-468    	; 0x50e <print_empty_line_error>
		print_text_to_line(PSTR("Es tut mir leid, aber die LED1 oder LED2 leuchtet nicht"),'!','F');
 6e2:	46 e4       	ldi	r20, 0x46	; 70
 6e4:	61 e2       	ldi	r22, 0x21	; 33
 6e6:	80 e6       	ldi	r24, 0x60	; 96
 6e8:	91 e0       	ldi	r25, 0x01	; 1
 6ea:	96 df       	rcall	.-212    	; 0x618 <print_text_to_line>
		print_pruefen_sie_die_Platine();
 6ec:	b9 df       	rcall	.-142    	; 0x660 <print_pruefen_sie_die_Platine>
		print_empty_line_error();
 6ee:	0f df       	rcall	.-482    	; 0x50e <print_empty_line_error>
		print_full_line_error();
 6f0:	de de       	rcall	.-580    	; 0x4ae <print_full_line_error>
		print_empty_lines();
		
	}
	
}
 6f2:	cf 91       	pop	r28
		print_empty_line_error();
		print_text_to_line(PSTR("Es tut mir leid, aber die LED1 oder LED2 leuchtet nicht"),'!','F');
		print_pruefen_sie_die_Platine();
		print_empty_line_error();
		print_full_line_error();
		print_empty_lines();
 6f4:	18 cf       	rjmp	.-464    	; 0x526 <print_empty_lines>

000006f6 <Test_Taster>:
const char string22[] EEMEM = "3\n\r";
const char string23[] EEMEM = "Zuerst testen wir die Taster auf dem aTeVal";
const char string24[] EEMEM = "Die Taster sind auf der Platine mit S1, S2 und S3 beschriftet";

void Test_Taster()
{
 6f6:	cf 93       	push	r28
 6f8:	df 93       	push	r29
	uint8_t counter =0;
	uint8_t errorcount=0;
	print_full_line();
 6fa:	0d df       	rcall	.-486    	; 0x516 <print_full_line>
	//print_text_to_line(PSTR("Zuerst testen wir die Taster auf dem aTeVal"),'#','F');
	print_text_to_line(string23,'#','E');
 6fc:	45 e4       	ldi	r20, 0x45	; 69
 6fe:	63 e2       	ldi	r22, 0x23	; 35
 700:	8b ef       	ldi	r24, 0xFB	; 251
 702:	90 e0       	ldi	r25, 0x00	; 0
 704:	89 df       	rcall	.-238    	; 0x618 <print_text_to_line>
	//print_text_to_line(PSTR("Die Taster sind auf der Platine mit S1, S2 und S3 beschriftet."),'#','F');
	print_text_to_line(string24,'#','E');
 706:	45 e4       	ldi	r20, 0x45	; 69
 708:	63 e2       	ldi	r22, 0x23	; 35
 70a:	8d eb       	ldi	r24, 0xBD	; 189
 70c:	90 e0       	ldi	r25, 0x00	; 0
 70e:	84 df       	rcall	.-248    	; 0x618 <print_text_to_line>
	print_weiter_mit_enter();
 710:	ee de       	rcall	.-548    	; 0x4ee <print_weiter_mit_enter>
	print_full_line();
 712:	01 df       	rcall	.-510    	; 0x516 <print_full_line>
	print_empty_lines();
 714:	08 df       	rcall	.-496    	; 0x526 <print_empty_lines>
	wait_for_enter();
 716:	a7 de       	rcall	.-690    	; 0x466 <wait_for_enter>
	//usart_putp(PSTR("Bitte nun Taster1 druecken:"));
	usart_pute(string8);
 718:	81 e6       	ldi	r24, 0x61	; 97
 71a:	91 e0       	ldi	r25, 0x01	; 1
 71c:	a8 d3       	rcall	.+1872   	; 0xe6e <usart_pute>
const char string23[] EEMEM = "Zuerst testen wir die Taster auf dem aTeVal";
const char string24[] EEMEM = "Die Taster sind auf der Platine mit S1, S2 und S3 beschriftet";

void Test_Taster()
{
	uint8_t counter =0;
 71e:	c0 e0       	ldi	r28, 0x00	; 0
	wait_for_enter();
	//usart_putp(PSTR("Bitte nun Taster1 druecken:"));
	usart_pute(string8);
	while((counter<250))
	{
		if(Get_Taster1()!=0)
 720:	ab d2       	rcall	.+1366   	; 0xc78 <Get_Taster1>
 722:	81 11       	cpse	r24, r1
 724:	09 c0       	rjmp	.+18     	; 0x738 <Test_Taster+0x42>
	#else
		//round up by default
		__ticks_dc = (uint32_t)(ceil(fabs(__tmp)));
	#endif

	__builtin_avr_delay_cycles(__ticks_dc);
 726:	89 e6       	ldi	r24, 0x69	; 105
 728:	98 e1       	ldi	r25, 0x18	; 24
 72a:	01 97       	sbiw	r24, 0x01	; 1
 72c:	f1 f7       	brne	.-4      	; 0x72a <Test_Taster+0x34>
 72e:	00 c0       	rjmp	.+0      	; 0x730 <Test_Taster+0x3a>
 730:	00 00       	nop
		{
			break;
		}
		_delay_ms(25);
		counter++;
 732:	cf 5f       	subi	r28, 0xFF	; 255
	print_full_line();
	print_empty_lines();
	wait_for_enter();
	//usart_putp(PSTR("Bitte nun Taster1 druecken:"));
	usart_pute(string8);
	while((counter<250))
 734:	ca 3f       	cpi	r28, 0xFA	; 250
 736:	a1 f7       	brne	.-24     	; 0x720 <Test_Taster+0x2a>
			break;
		}
		_delay_ms(25);
		counter++;
	}
	if((counter>=250)||(counter<1))
 738:	c1 50       	subi	r28, 0x01	; 1
 73a:	c9 3f       	cpi	r28, 0xF9	; 249
 73c:	30 f0       	brcs	.+12     	; 0x74a <Test_Taster+0x54>
	{
		print_fehler_bei_Taste();
 73e:	f9 de       	rcall	.-526    	; 0x532 <print_fehler_bei_Taste>
		//usart_putp(PSTR("1\n\r"));
		usart_pute(string20);
 740:	8f e2       	ldi	r24, 0x2F	; 47
 742:	91 e0       	ldi	r25, 0x01	; 1
 744:	94 d3       	rcall	.+1832   	; 0xe6e <usart_pute>
		errorcount++;
 746:	c1 e0       	ldi	r28, 0x01	; 1
 748:	04 c0       	rjmp	.+8      	; 0x752 <Test_Taster+0x5c>
	}
	else
	{
		print_okay();
 74a:	f0 de       	rcall	.-544    	; 0x52c <print_okay>
		tater1_okay=Okay;
 74c:	10 92 67 00 	sts	0x0067, r1
const char string24[] EEMEM = "Die Taster sind auf der Platine mit S1, S2 und S3 beschriftet";

void Test_Taster()
{
	uint8_t counter =0;
	uint8_t errorcount=0;
 750:	c0 e0       	ldi	r28, 0x00	; 0
		tater1_okay=Okay;
	}
	counter=0;
	
	//usart_putp(PSTR("Bitte nun Taster2 druecken:"));
	usart_pute(string9);
 752:	8a e4       	ldi	r24, 0x4A	; 74
 754:	91 e0       	ldi	r25, 0x01	; 1
 756:	8b d3       	rcall	.+1814   	; 0xe6e <usart_pute>
	else
	{
		print_okay();
		tater1_okay=Okay;
	}
	counter=0;
 758:	d0 e0       	ldi	r29, 0x00	; 0
	
	//usart_putp(PSTR("Bitte nun Taster2 druecken:"));
	usart_pute(string9);
	while(counter<250)
	{
		if(Get_Taster2()!=0)
 75a:	97 d2       	rcall	.+1326   	; 0xc8a <Get_Taster2>
 75c:	81 11       	cpse	r24, r1
 75e:	09 c0       	rjmp	.+18     	; 0x772 <Test_Taster+0x7c>
 760:	89 e6       	ldi	r24, 0x69	; 105
 762:	98 e1       	ldi	r25, 0x18	; 24
 764:	01 97       	sbiw	r24, 0x01	; 1
 766:	f1 f7       	brne	.-4      	; 0x764 <Test_Taster+0x6e>
 768:	00 c0       	rjmp	.+0      	; 0x76a <Test_Taster+0x74>
 76a:	00 00       	nop
		{
			break;
		}
		_delay_ms(25);
		counter++;
 76c:	df 5f       	subi	r29, 0xFF	; 255
	}
	counter=0;
	
	//usart_putp(PSTR("Bitte nun Taster2 druecken:"));
	usart_pute(string9);
	while(counter<250)
 76e:	da 3f       	cpi	r29, 0xFA	; 250
 770:	a1 f7       	brne	.-24     	; 0x75a <Test_Taster+0x64>
			break;
		}
		_delay_ms(25);
		counter++;
	}
	if((counter>=250)||(counter<1))
 772:	d1 50       	subi	r29, 0x01	; 1
 774:	d9 3f       	cpi	r29, 0xF9	; 249
 776:	30 f0       	brcs	.+12     	; 0x784 <Test_Taster+0x8e>
	{
		print_fehler_bei_Taste();
 778:	dc de       	rcall	.-584    	; 0x532 <print_fehler_bei_Taste>
		//usart_putp(PSTR("2\n\r"));
		usart_pute(string21);
 77a:	8b e2       	ldi	r24, 0x2B	; 43
 77c:	91 e0       	ldi	r25, 0x01	; 1
 77e:	77 d3       	rcall	.+1774   	; 0xe6e <usart_pute>
		errorcount++;
 780:	cf 5f       	subi	r28, 0xFF	; 255
 782:	03 c0       	rjmp	.+6      	; 0x78a <Test_Taster+0x94>
	}
	else
	{
		print_okay();
 784:	d3 de       	rcall	.-602    	; 0x52c <print_okay>
		tater2_okay=Okay;
 786:	10 92 66 00 	sts	0x0066, r1
	}
	counter=0;
	
	//usart_putp(PSTR("Bitte nun Taster3 druecken:"));
	usart_pute(string10);
 78a:	83 e3       	ldi	r24, 0x33	; 51
 78c:	91 e0       	ldi	r25, 0x01	; 1
 78e:	6f d3       	rcall	.+1758   	; 0xe6e <usart_pute>
	else
	{
		print_okay();
		tater2_okay=Okay;
	}
	counter=0;
 790:	d0 e0       	ldi	r29, 0x00	; 0
	
	//usart_putp(PSTR("Bitte nun Taster3 druecken:"));
	usart_pute(string10);
	while(counter<250)
	{
		if(Get_Taster3()!=0)
 792:	84 d2       	rcall	.+1288   	; 0xc9c <Get_Taster3>
 794:	81 11       	cpse	r24, r1
 796:	09 c0       	rjmp	.+18     	; 0x7aa <Test_Taster+0xb4>
 798:	89 e6       	ldi	r24, 0x69	; 105
 79a:	98 e1       	ldi	r25, 0x18	; 24
 79c:	01 97       	sbiw	r24, 0x01	; 1
 79e:	f1 f7       	brne	.-4      	; 0x79c <Test_Taster+0xa6>
 7a0:	00 c0       	rjmp	.+0      	; 0x7a2 <Test_Taster+0xac>
 7a2:	00 00       	nop
		{
			break;
		}
		_delay_ms(25);
		counter++;
 7a4:	df 5f       	subi	r29, 0xFF	; 255
	}
	counter=0;
	
	//usart_putp(PSTR("Bitte nun Taster3 druecken:"));
	usart_pute(string10);
	while(counter<250)
 7a6:	da 3f       	cpi	r29, 0xFA	; 250
 7a8:	a1 f7       	brne	.-24     	; 0x792 <Test_Taster+0x9c>
			break;
		}
		_delay_ms(25);
		counter++;
	}
	if((counter>=250)||(counter<1))
 7aa:	d1 50       	subi	r29, 0x01	; 1
 7ac:	d9 3f       	cpi	r29, 0xF9	; 249
 7ae:	30 f0       	brcs	.+12     	; 0x7bc <Test_Taster+0xc6>
	{
		print_fehler_bei_Taste();
 7b0:	c0 de       	rcall	.-640    	; 0x532 <print_fehler_bei_Taste>
		//usart_putp(PSTR("3\n\r"));
		usart_pute(string22);
 7b2:	87 e2       	ldi	r24, 0x27	; 39
 7b4:	91 e0       	ldi	r25, 0x01	; 1
 7b6:	5b d3       	rcall	.+1718   	; 0xe6e <usart_pute>
		errorcount++;
 7b8:	cf 5f       	subi	r28, 0xFF	; 255
 7ba:	03 c0       	rjmp	.+6      	; 0x7c2 <Test_Taster+0xcc>
	}
	else
	{
		print_okay();
 7bc:	b7 de       	rcall	.-658    	; 0x52c <print_okay>
		tater3_okay=Okay;
 7be:	10 92 65 00 	sts	0x0065, r1
	}
	counter=0;
	
	print_empty_lines();
 7c2:	b1 de       	rcall	.-670    	; 0x526 <print_empty_lines>

	if(errorcount==0)
 7c4:	c1 11       	cpse	r28, r1
 7c6:	0b c0       	rjmp	.+22     	; 0x7de <Test_Taster+0xe8>
	{
		print_full_line();
 7c8:	a6 de       	rcall	.-692    	; 0x516 <print_full_line>
		print_empty_line();
 7ca:	a3 de       	rcall	.-698    	; 0x512 <print_empty_line>
		print_text_to_line(PSTR("Sie haben die Taster1 bis Taster3 erfolgreich getestet, gut gemacht."),'#','F');
 7cc:	46 e4       	ldi	r20, 0x46	; 70
 7ce:	63 e2       	ldi	r22, 0x23	; 35
 7d0:	88 e9       	ldi	r24, 0x98	; 152
 7d2:	91 e0       	ldi	r25, 0x01	; 1
 7d4:	21 df       	rcall	.-446    	; 0x618 <print_text_to_line>
		print_weiter_mit_enter();
 7d6:	8b de       	rcall	.-746    	; 0x4ee <print_weiter_mit_enter>
		print_empty_line();
 7d8:	9c de       	rcall	.-712    	; 0x512 <print_empty_line>
		print_full_line();
 7da:	9d de       	rcall	.-710    	; 0x516 <print_full_line>
 7dc:	0a c0       	rjmp	.+20     	; 0x7f2 <Test_Taster+0xfc>
		
	}
	else
	{
		print_full_line_error();
 7de:	67 de       	rcall	.-818    	; 0x4ae <print_full_line_error>
		print_empty_line_error();
 7e0:	96 de       	rcall	.-724    	; 0x50e <print_empty_line_error>
		//usart_putp(PSTR("!  Es tut mir leid, aber die Taster arbeiten nicht korrekt, bitte pruefen Sie  !\n\r"));
		//usart_putp(PSTR("!  noch einmal die Platine                                                     !\n\r"));
		print_text_to_line(PSTR("Es tut mir leid, aber die Taster arbeiten nicht korrekt."),'!','F');
 7e2:	46 e4       	ldi	r20, 0x46	; 70
 7e4:	61 e2       	ldi	r22, 0x21	; 33
 7e6:	8d ed       	ldi	r24, 0xDD	; 221
 7e8:	91 e0       	ldi	r25, 0x01	; 1
 7ea:	16 df       	rcall	.-468    	; 0x618 <print_text_to_line>
		print_pruefen_sie_die_Platine();
 7ec:	39 df       	rcall	.-398    	; 0x660 <print_pruefen_sie_die_Platine>
		print_weiter_mit_enter_error();
 7ee:	7d de       	rcall	.-774    	; 0x4ea <print_weiter_mit_enter_error>
		print_full_line_error();
 7f0:	5e de       	rcall	.-836    	; 0x4ae <print_full_line_error>
	}
	print_empty_lines();
 7f2:	99 de       	rcall	.-718    	; 0x526 <print_empty_lines>
	wait_for_enter();
}
 7f4:	df 91       	pop	r29
 7f6:	cf 91       	pop	r28
		print_pruefen_sie_die_Platine();
		print_weiter_mit_enter_error();
		print_full_line_error();
	}
	print_empty_lines();
	wait_for_enter();
 7f8:	36 ce       	rjmp	.-916    	; 0x466 <wait_for_enter>

000007fa <ateval_speaktest>:
}
#endif
const char string12[] EEMEM="Haben Sie einen Ton gehoert? (j/n):";
void ateval_speaktest()
{
	print_full_line();
 7fa:	8d de       	rcall	.-742    	; 0x516 <print_full_line>
	print_empty_line();
 7fc:	8a de       	rcall	.-748    	; 0x512 <print_empty_line>
	//usart_putp(PSTR("#                 Es wird nun der Lautsprecher getestet	                        #\n\r"));
	print_text_to_line(PSTR("Es wird nun der Lautsprecher getestet"),'#','F');
 7fe:	46 e4       	ldi	r20, 0x46	; 70
 800:	63 e2       	ldi	r22, 0x23	; 35
 802:	86 e1       	ldi	r24, 0x16	; 22
 804:	92 e0       	ldi	r25, 0x02	; 2
 806:	08 df       	rcall	.-496    	; 0x618 <print_text_to_line>
		
	
	print_weiter_mit_enter();
 808:	72 de       	rcall	.-796    	; 0x4ee <print_weiter_mit_enter>
	print_empty_line();
 80a:	83 de       	rcall	.-762    	; 0x512 <print_empty_line>
	print_full_line();
 80c:	84 de       	rcall	.-760    	; 0x516 <print_full_line>
	wait_for_enter();
 80e:	2b de       	rcall	.-938    	; 0x466 <wait_for_enter>
	
	//music_play();
	play_tone();
 810:	ab d2       	rcall	.+1366   	; 0xd68 <play_tone>
	print_empty_lines();
 812:	89 de       	rcall	.-750    	; 0x526 <print_empty_lines>
	//usart_putp(PSTR("Haben Sie einen Ton gehoert? (j/n):"));
	usart_pute(string12);
 814:	8f e2       	ldi	r24, 0x2F	; 47
 816:	90 e0       	ldi	r25, 0x00	; 0
 818:	2a d3       	rcall	.+1620   	; 0xe6e <usart_pute>
	if(ja_oder_nein()=='j')
 81a:	36 de       	rcall	.-916    	; 0x488 <ja_oder_nein>
 81c:	8a 36       	cpi	r24, 0x6A	; 106
 81e:	71 f4       	brne	.+28     	; 0x83c <ateval_speaktest+0x42>
	{
		print_empty_lines();
 820:	82 de       	rcall	.-764    	; 0x526 <print_empty_lines>
		print_full_line();
 822:	79 de       	rcall	.-782    	; 0x516 <print_full_line>
		print_empty_line();
 824:	76 de       	rcall	.-788    	; 0x512 <print_empty_line>
		//usart_putp(PSTR("#  Sie haben den Lautsprecher erfolgreich getestet, ich hoffe die Melodie      #\n\r"));
		//usart_putp(PSTR("#  hat Ihnen gefallen.                                                         #\n\r"));
		
		print_text_to_line(PSTR("Sie haben den Lautsprecher erfolgreich getestet"),'#','F');
 826:	46 e4       	ldi	r20, 0x46	; 70
 828:	63 e2       	ldi	r22, 0x23	; 35
 82a:	8c e3       	ldi	r24, 0x3C	; 60
 82c:	92 e0       	ldi	r25, 0x02	; 2
 82e:	f4 de       	rcall	.-536    	; 0x618 <print_text_to_line>
		
		print_weiter_mit_enter();
 830:	5e de       	rcall	.-836    	; 0x4ee <print_weiter_mit_enter>
		print_full_line();
 832:	71 de       	rcall	.-798    	; 0x516 <print_full_line>
		wait_for_enter();
 834:	18 de       	rcall	.-976    	; 0x466 <wait_for_enter>
		speaker_okay=Okay;;
 836:	10 92 60 00 	sts	0x0060, r1
 83a:	0d c0       	rjmp	.+26     	; 0x856 <ateval_speaktest+0x5c>
	}
	else
	{
		print_empty_lines();
 83c:	74 de       	rcall	.-792    	; 0x526 <print_empty_lines>
		print_full_line_error();
 83e:	37 de       	rcall	.-914    	; 0x4ae <print_full_line_error>
		print_empty_line_error();
 840:	66 de       	rcall	.-820    	; 0x50e <print_empty_line_error>
	
		print_text_to_line(PSTR("Es tut mir leid, aber der Lautsprecher scheint keinen Ton von sich zu geben,"),'!','F');
 842:	46 e4       	ldi	r20, 0x46	; 70
 844:	61 e2       	ldi	r22, 0x21	; 33
 846:	8c e6       	ldi	r24, 0x6C	; 108
 848:	92 e0       	ldi	r25, 0x02	; 2
 84a:	e6 de       	rcall	.-564    	; 0x618 <print_text_to_line>
		print_pruefen_sie_die_Platine();
 84c:	09 df       	rcall	.-494    	; 0x660 <print_pruefen_sie_die_Platine>
		
		print_empty_line_error();
 84e:	5f de       	rcall	.-834    	; 0x50e <print_empty_line_error>
		print_weiter_mit_enter_error();
 850:	4c de       	rcall	.-872    	; 0x4ea <print_weiter_mit_enter_error>
		print_full_line_error();
 852:	2d de       	rcall	.-934    	; 0x4ae <print_full_line_error>
		wait_for_enter();
 854:	08 de       	rcall	.-1008   	; 0x466 <wait_for_enter>
	}
	print_empty_lines();
 856:	67 ce       	rjmp	.-818    	; 0x526 <print_empty_lines>

00000858 <adc_potentiometercheck>:
const char string13[] EEMEM = "Bitte drehen Sie das ";
const char string14[] EEMEM = " ganz nach ";
const char string15[] EEMEM = "links";
const char string16[] EEMEM = "rechts";
void adc_potentiometercheck(uint8_t Potentiometernummer)
{
 858:	ff 92       	push	r15
 85a:	0f 93       	push	r16
 85c:	1f 93       	push	r17
 85e:	cf 93       	push	r28
 860:	df 93       	push	r29
	uint8_t adc_channel=0;
	
	if(Potentiometernummer==0)
 862:	ff 24       	eor	r15, r15
 864:	f3 94       	inc	r15
 866:	81 11       	cpse	r24, r1
 868:	f1 2c       	mov	r15, r1
	{
		adc_channel=1;
	}
	uint16_t adc_value = Get_ADC_Value(adc_channel);
 86a:	8f 2d       	mov	r24, r15
 86c:	ea dd       	rcall	.-1068   	; 0x442 <Get_ADC_Value>
 86e:	ec 01       	movw	r28, r24
	uint16_t counter=0;
	
	if(Get_ADC_Value(adc_channel)<21)
 870:	8f 2d       	mov	r24, r15
 872:	e7 dd       	rcall	.-1074   	; 0x442 <Get_ADC_Value>
 874:	45 97       	sbiw	r24, 0x15	; 21
 876:	08 f0       	brcs	.+2      	; 0x87a <adc_potentiometercheck+0x22>
 878:	66 c0       	rjmp	.+204    	; 0x946 <adc_potentiometercheck+0xee>
	{
		//usart_putp(PSTR("Bitte drehen Sie das"));
		usart_pute(string13);
 87a:	89 e1       	ldi	r24, 0x19	; 25
 87c:	90 e0       	ldi	r25, 0x00	; 0
 87e:	f7 d2       	rcall	.+1518   	; 0xe6e <usart_pute>
		print_potentiometer();
 880:	f4 de       	rcall	.-536    	; 0x66a <print_potentiometer>
		if(Potentiometernummer==0)
 882:	ff 20       	and	r15, r15
 884:	19 f0       	breq	.+6      	; 0x88c <adc_potentiometercheck+0x34>
		{
			usart_putp(PSTR("1"));
 886:	8d e6       	ldi	r24, 0x6D	; 109
 888:	93 e0       	ldi	r25, 0x03	; 3
 88a:	02 c0       	rjmp	.+4      	; 0x890 <adc_potentiometercheck+0x38>
		}
		else
		{
			usart_putp(PSTR("2"));
 88c:	8f e6       	ldi	r24, 0x6F	; 111
 88e:	93 e0       	ldi	r25, 0x03	; 3
 890:	fb d2       	rcall	.+1526   	; 0xe88 <usart_putp>
		}
		//usart_putp(PSTR(" ganz nach links\n\r"));
		usart_pute(string14);
 892:	8d e0       	ldi	r24, 0x0D	; 13
 894:	90 e0       	ldi	r25, 0x00	; 0
 896:	eb d2       	rcall	.+1494   	; 0xe6e <usart_pute>
		usart_pute(string15);
 898:	87 e0       	ldi	r24, 0x07	; 7
 89a:	90 e0       	ldi	r25, 0x00	; 0
 89c:	e8 d2       	rcall	.+1488   	; 0xe6e <usart_pute>
		print_new_line();
 89e:	04 de       	rcall	.-1016   	; 0x4a8 <print_new_line>
		adc_value = Get_ADC_Value(adc_channel);
 8a0:	8f 2d       	mov	r24, r15
 8a2:	cf dd       	rcall	.-1122   	; 0x442 <Get_ADC_Value>
 8a4:	ec 01       	movw	r28, r24
		counter=0;
 8a6:	00 e0       	ldi	r16, 0x00	; 0
 8a8:	10 e0       	ldi	r17, 0x00	; 0
		while((adc_value<0x2AF)&&(counter<ADCTIMEOUT))
 8aa:	0b c0       	rjmp	.+22     	; 0x8c2 <adc_potentiometercheck+0x6a>
 8ac:	83 ec       	ldi	r24, 0xC3	; 195
 8ae:	99 e0       	ldi	r25, 0x09	; 9
 8b0:	01 97       	sbiw	r24, 0x01	; 1
 8b2:	f1 f7       	brne	.-4      	; 0x8b0 <adc_potentiometercheck+0x58>
 8b4:	00 c0       	rjmp	.+0      	; 0x8b6 <adc_potentiometercheck+0x5e>
 8b6:	00 00       	nop
		{
			_delay_ms(10);
			adc_value=Get_ADC_Value(adc_channel);
 8b8:	8f 2d       	mov	r24, r15
 8ba:	c3 dd       	rcall	.-1146   	; 0x442 <Get_ADC_Value>
 8bc:	ec 01       	movw	r28, r24
			counter++;
 8be:	0f 5f       	subi	r16, 0xFF	; 255
 8c0:	1f 4f       	sbci	r17, 0xFF	; 255
		usart_pute(string14);
		usart_pute(string15);
		print_new_line();
		adc_value = Get_ADC_Value(adc_channel);
		counter=0;
		while((adc_value<0x2AF)&&(counter<ADCTIMEOUT))
 8c2:	cf 3a       	cpi	r28, 0xAF	; 175
 8c4:	92 e0       	ldi	r25, 0x02	; 2
 8c6:	d9 07       	cpc	r29, r25
 8c8:	28 f4       	brcc	.+10     	; 0x8d4 <adc_potentiometercheck+0x7c>
 8ca:	08 3b       	cpi	r16, 0xB8	; 184
 8cc:	8b e0       	ldi	r24, 0x0B	; 11
 8ce:	18 07       	cpc	r17, r24
 8d0:	69 f7       	brne	.-38     	; 0x8ac <adc_potentiometercheck+0x54>
 8d2:	a2 c0       	rjmp	.+324    	; 0xa18 <adc_potentiometercheck+0x1c0>
			_delay_ms(10);
			adc_value=Get_ADC_Value(adc_channel);
			counter++;
		
		}
		if(counter<ADCTIMEOUT)
 8d4:	08 3b       	cpi	r16, 0xB8	; 184
 8d6:	1b 40       	sbci	r17, 0x0B	; 11
 8d8:	09 f4       	brne	.+2      	; 0x8dc <adc_potentiometercheck+0x84>
 8da:	9e c0       	rjmp	.+316    	; 0xa18 <adc_potentiometercheck+0x1c0>
		{
			counter=0;
			//usart_putp(PSTR("Bitte drehen Sie das "));
			usart_pute(string13);
 8dc:	89 e1       	ldi	r24, 0x19	; 25
 8de:	90 e0       	ldi	r25, 0x00	; 0
 8e0:	c6 d2       	rcall	.+1420   	; 0xe6e <usart_pute>
			print_potentiometer();
 8e2:	c3 de       	rcall	.-634    	; 0x66a <print_potentiometer>
			if(Potentiometernummer==0)
 8e4:	ff 20       	and	r15, r15
 8e6:	19 f0       	breq	.+6      	; 0x8ee <adc_potentiometercheck+0x96>
			{
				usart_putp(PSTR("1"));
 8e8:	81 e7       	ldi	r24, 0x71	; 113
 8ea:	93 e0       	ldi	r25, 0x03	; 3
 8ec:	02 c0       	rjmp	.+4      	; 0x8f2 <adc_potentiometercheck+0x9a>
			}
			else
			{
				usart_putp(PSTR("2"));
 8ee:	83 e7       	ldi	r24, 0x73	; 115
 8f0:	93 e0       	ldi	r25, 0x03	; 3
 8f2:	ca d2       	rcall	.+1428   	; 0xe88 <usart_putp>
			}
			//usart_putp(PSTR(" ganz nach rechts\n\r"));
			usart_pute(string14);
 8f4:	8d e0       	ldi	r24, 0x0D	; 13
 8f6:	90 e0       	ldi	r25, 0x00	; 0
 8f8:	ba d2       	rcall	.+1396   	; 0xe6e <usart_pute>
			usart_pute(string16);
 8fa:	80 e0       	ldi	r24, 0x00	; 0
 8fc:	90 e0       	ldi	r25, 0x00	; 0
 8fe:	b7 d2       	rcall	.+1390   	; 0xe6e <usart_pute>
			print_new_line();
 900:	d3 dd       	rcall	.-1114   	; 0x4a8 <print_new_line>
			counter++;
		
		}
		if(counter<ADCTIMEOUT)
		{
			counter=0;
 902:	00 e0       	ldi	r16, 0x00	; 0
 904:	10 e0       	ldi	r17, 0x00	; 0
			//usart_putp(PSTR(" ganz nach rechts\n\r"));
			usart_pute(string14);
			usart_pute(string16);
			print_new_line();
			
			while((adc_value>20)&&(counter<ADCTIMEOUT))
 906:	0b c0       	rjmp	.+22     	; 0x91e <adc_potentiometercheck+0xc6>
 908:	83 ec       	ldi	r24, 0xC3	; 195
 90a:	99 e0       	ldi	r25, 0x09	; 9
 90c:	01 97       	sbiw	r24, 0x01	; 1
 90e:	f1 f7       	brne	.-4      	; 0x90c <adc_potentiometercheck+0xb4>
 910:	00 c0       	rjmp	.+0      	; 0x912 <adc_potentiometercheck+0xba>
 912:	00 00       	nop
			{
				_delay_ms(10);
				adc_value=Get_ADC_Value(adc_channel);
 914:	8f 2d       	mov	r24, r15
 916:	95 dd       	rcall	.-1238   	; 0x442 <Get_ADC_Value>
 918:	ec 01       	movw	r28, r24
				counter++;
 91a:	0f 5f       	subi	r16, 0xFF	; 255
 91c:	1f 4f       	sbci	r17, 0xFF	; 255
			//usart_putp(PSTR(" ganz nach rechts\n\r"));
			usart_pute(string14);
			usart_pute(string16);
			print_new_line();
			
			while((adc_value>20)&&(counter<ADCTIMEOUT))
 91e:	65 97       	sbiw	r28, 0x15	; 21
 920:	28 f0       	brcs	.+10     	; 0x92c <adc_potentiometercheck+0xd4>
 922:	08 3b       	cpi	r16, 0xB8	; 184
 924:	9b e0       	ldi	r25, 0x0B	; 11
 926:	19 07       	cpc	r17, r25
 928:	79 f7       	brne	.-34     	; 0x908 <adc_potentiometercheck+0xb0>
 92a:	76 c0       	rjmp	.+236    	; 0xa18 <adc_potentiometercheck+0x1c0>
				_delay_ms(10);
				adc_value=Get_ADC_Value(adc_channel);
				counter++;
			}
			//OKay weiter im Text
			if(counter<ADCTIMEOUT)
 92c:	08 3b       	cpi	r16, 0xB8	; 184
 92e:	1b 40       	sbci	r17, 0x0B	; 11
 930:	09 f4       	brne	.+2      	; 0x934 <adc_potentiometercheck+0xdc>
 932:	72 c0       	rjmp	.+228    	; 0xa18 <adc_potentiometercheck+0x1c0>
			{
				print_potentiometer();
 934:	9a de       	rcall	.-716    	; 0x66a <print_potentiometer>
				if(Potentiometernummer==0)
 936:	ff 20       	and	r15, r15
 938:	19 f0       	breq	.+6      	; 0x940 <adc_potentiometercheck+0xe8>
				{
					usart_putp(PSTR("1"));
 93a:	85 e7       	ldi	r24, 0x75	; 117
 93c:	93 e0       	ldi	r25, 0x03	; 3
 93e:	63 c0       	rjmp	.+198    	; 0xa06 <adc_potentiometercheck+0x1ae>
				}
				else
				{
					usart_putp(PSTR("2"));
 940:	87 e7       	ldi	r24, 0x77	; 119
 942:	93 e0       	ldi	r25, 0x03	; 3
 944:	60 c0       	rjmp	.+192    	; 0xa06 <adc_potentiometercheck+0x1ae>
	
	}
	//if(Get_ADC_Value(adc_channel)<21)
	else
	{
		usart_pute(string13);
 946:	89 e1       	ldi	r24, 0x19	; 25
 948:	90 e0       	ldi	r25, 0x00	; 0
 94a:	91 d2       	rcall	.+1314   	; 0xe6e <usart_pute>
		print_potentiometer();
 94c:	8e de       	rcall	.-740    	; 0x66a <print_potentiometer>
		if(Potentiometernummer==0)
 94e:	ff 20       	and	r15, r15
 950:	19 f0       	breq	.+6      	; 0x958 <adc_potentiometercheck+0x100>
		{
			usart_putp(PSTR("1"));
 952:	89 e7       	ldi	r24, 0x79	; 121
 954:	93 e0       	ldi	r25, 0x03	; 3
 956:	02 c0       	rjmp	.+4      	; 0x95c <adc_potentiometercheck+0x104>
		}
		else
		{
			usart_putp(PSTR("2"));
 958:	8b e7       	ldi	r24, 0x7B	; 123
 95a:	93 e0       	ldi	r25, 0x03	; 3
 95c:	95 d2       	rcall	.+1322   	; 0xe88 <usart_putp>
		}
		//usart_putp(PSTR(" ganz nach rechts\n\r"));
		usart_pute(string14);
 95e:	8d e0       	ldi	r24, 0x0D	; 13
 960:	90 e0       	ldi	r25, 0x00	; 0
 962:	85 d2       	rcall	.+1290   	; 0xe6e <usart_pute>
		usart_pute(string16);
 964:	80 e0       	ldi	r24, 0x00	; 0
 966:	90 e0       	ldi	r25, 0x00	; 0
 968:	82 d2       	rcall	.+1284   	; 0xe6e <usart_pute>
		print_new_line();
 96a:	9e dd       	rcall	.-1220   	; 0x4a8 <print_new_line>
		
		counter=0;
 96c:	00 e0       	ldi	r16, 0x00	; 0
 96e:	10 e0       	ldi	r17, 0x00	; 0
		while((adc_value>20)&&(counter<ADCTIMEOUT))
 970:	0b c0       	rjmp	.+22     	; 0x988 <adc_potentiometercheck+0x130>
 972:	83 ec       	ldi	r24, 0xC3	; 195
 974:	99 e0       	ldi	r25, 0x09	; 9
 976:	01 97       	sbiw	r24, 0x01	; 1
 978:	f1 f7       	brne	.-4      	; 0x976 <adc_potentiometercheck+0x11e>
 97a:	00 c0       	rjmp	.+0      	; 0x97c <adc_potentiometercheck+0x124>
 97c:	00 00       	nop
		{
			_delay_ms(10);
			adc_value=Get_ADC_Value(adc_channel);
 97e:	8f 2d       	mov	r24, r15
 980:	60 dd       	rcall	.-1344   	; 0x442 <Get_ADC_Value>
 982:	ec 01       	movw	r28, r24
			counter++;
 984:	0f 5f       	subi	r16, 0xFF	; 255
 986:	1f 4f       	sbci	r17, 0xFF	; 255
		usart_pute(string14);
		usart_pute(string16);
		print_new_line();
		
		counter=0;
		while((adc_value>20)&&(counter<ADCTIMEOUT))
 988:	c5 31       	cpi	r28, 0x15	; 21
 98a:	d1 05       	cpc	r29, r1
 98c:	28 f0       	brcs	.+10     	; 0x998 <adc_potentiometercheck+0x140>
 98e:	08 3b       	cpi	r16, 0xB8	; 184
 990:	9b e0       	ldi	r25, 0x0B	; 11
 992:	19 07       	cpc	r17, r25
 994:	71 f7       	brne	.-36     	; 0x972 <adc_potentiometercheck+0x11a>
 996:	40 c0       	rjmp	.+128    	; 0xa18 <adc_potentiometercheck+0x1c0>
			_delay_ms(10);
			adc_value=Get_ADC_Value(adc_channel);
			counter++;
		
		}
		if(counter<ADCTIMEOUT)
 998:	08 3b       	cpi	r16, 0xB8	; 184
 99a:	1b 40       	sbci	r17, 0x0B	; 11
 99c:	e9 f1       	breq	.+122    	; 0xa18 <adc_potentiometercheck+0x1c0>
		{
			counter=0;
			usart_pute(string13);
 99e:	89 e1       	ldi	r24, 0x19	; 25
 9a0:	90 e0       	ldi	r25, 0x00	; 0
 9a2:	65 d2       	rcall	.+1226   	; 0xe6e <usart_pute>
			print_potentiometer();
 9a4:	62 de       	rcall	.-828    	; 0x66a <print_potentiometer>
			if(Potentiometernummer==0)
 9a6:	ff 20       	and	r15, r15
 9a8:	19 f0       	breq	.+6      	; 0x9b0 <adc_potentiometercheck+0x158>
			{
				usart_putp(PSTR("1"));
 9aa:	8d e7       	ldi	r24, 0x7D	; 125
 9ac:	93 e0       	ldi	r25, 0x03	; 3
 9ae:	02 c0       	rjmp	.+4      	; 0x9b4 <adc_potentiometercheck+0x15c>
			}
			else
			{
				usart_putp(PSTR("2"));
 9b0:	8f e7       	ldi	r24, 0x7F	; 127
 9b2:	93 e0       	ldi	r25, 0x03	; 3
 9b4:	69 d2       	rcall	.+1234   	; 0xe88 <usart_putp>
			}
			//usart_putp(PSTR(" ganz nach links\n\r"));
			usart_pute(string14);
 9b6:	8d e0       	ldi	r24, 0x0D	; 13
 9b8:	90 e0       	ldi	r25, 0x00	; 0
 9ba:	59 d2       	rcall	.+1202   	; 0xe6e <usart_pute>
			usart_pute(string15);
 9bc:	87 e0       	ldi	r24, 0x07	; 7
 9be:	90 e0       	ldi	r25, 0x00	; 0
 9c0:	56 d2       	rcall	.+1196   	; 0xe6e <usart_pute>
			print_new_line();
 9c2:	72 dd       	rcall	.-1308   	; 0x4a8 <print_new_line>
			counter++;
		
		}
		if(counter<ADCTIMEOUT)
		{
			counter=0;
 9c4:	00 e0       	ldi	r16, 0x00	; 0
 9c6:	10 e0       	ldi	r17, 0x00	; 0
			//usart_putp(PSTR(" ganz nach links\n\r"));
			usart_pute(string14);
			usart_pute(string15);
			print_new_line();
			
			while((adc_value<0x2AF)&&(counter<ADCTIMEOUT))
 9c8:	0b c0       	rjmp	.+22     	; 0x9e0 <adc_potentiometercheck+0x188>
 9ca:	83 ec       	ldi	r24, 0xC3	; 195
 9cc:	99 e0       	ldi	r25, 0x09	; 9
 9ce:	01 97       	sbiw	r24, 0x01	; 1
 9d0:	f1 f7       	brne	.-4      	; 0x9ce <adc_potentiometercheck+0x176>
 9d2:	00 c0       	rjmp	.+0      	; 0x9d4 <adc_potentiometercheck+0x17c>
 9d4:	00 00       	nop
			{
				_delay_ms(10);
				adc_value=Get_ADC_Value(adc_channel);
 9d6:	8f 2d       	mov	r24, r15
 9d8:	34 dd       	rcall	.-1432   	; 0x442 <Get_ADC_Value>
 9da:	ec 01       	movw	r28, r24
				counter++;
 9dc:	0f 5f       	subi	r16, 0xFF	; 255
 9de:	1f 4f       	sbci	r17, 0xFF	; 255
			//usart_putp(PSTR(" ganz nach links\n\r"));
			usart_pute(string14);
			usart_pute(string15);
			print_new_line();
			
			while((adc_value<0x2AF)&&(counter<ADCTIMEOUT))
 9e0:	cf 3a       	cpi	r28, 0xAF	; 175
 9e2:	d2 40       	sbci	r29, 0x02	; 2
 9e4:	28 f4       	brcc	.+10     	; 0x9f0 <adc_potentiometercheck+0x198>
 9e6:	08 3b       	cpi	r16, 0xB8	; 184
 9e8:	8b e0       	ldi	r24, 0x0B	; 11
 9ea:	18 07       	cpc	r17, r24
 9ec:	71 f7       	brne	.-36     	; 0x9ca <adc_potentiometercheck+0x172>
 9ee:	14 c0       	rjmp	.+40     	; 0xa18 <adc_potentiometercheck+0x1c0>
				_delay_ms(10);
				adc_value=Get_ADC_Value(adc_channel);
				counter++;
			}
			//OKay weiter im Text
			if(counter<ADCTIMEOUT)
 9f0:	08 3b       	cpi	r16, 0xB8	; 184
 9f2:	1b 40       	sbci	r17, 0x0B	; 11
 9f4:	89 f0       	breq	.+34     	; 0xa18 <adc_potentiometercheck+0x1c0>
			{
				print_potentiometer();
 9f6:	39 de       	rcall	.-910    	; 0x66a <print_potentiometer>
				if(Potentiometernummer==0)
 9f8:	ff 20       	and	r15, r15
 9fa:	19 f0       	breq	.+6      	; 0xa02 <adc_potentiometercheck+0x1aa>
				{
					usart_putp(PSTR("1"));
 9fc:	81 e8       	ldi	r24, 0x81	; 129
 9fe:	93 e0       	ldi	r25, 0x03	; 3
 a00:	02 c0       	rjmp	.+4      	; 0xa06 <adc_potentiometercheck+0x1ae>
				}
				else
				{
					usart_putp(PSTR("2"));
 a02:	83 e8       	ldi	r24, 0x83	; 131
 a04:	93 e0       	ldi	r25, 0x03	; 3
 a06:	40 d2       	rcall	.+1152   	; 0xe88 <usart_putp>
				}
				print_okay();
 a08:	91 dd       	rcall	.-1246   	; 0x52c <print_okay>
				if(Potentiometernummer==0)
 a0a:	ff 20       	and	r15, r15
 a0c:	19 f0       	breq	.+6      	; 0xa14 <adc_potentiometercheck+0x1bc>
				{
					poti1_okay=Okay;
 a0e:	10 92 62 00 	sts	0x0062, r1
 a12:	02 c0       	rjmp	.+4      	; 0xa18 <adc_potentiometercheck+0x1c0>
				}
				else
				{
					poti2_okay=Okay;
 a14:	10 92 61 00 	sts	0x0061, r1
	
	
	
	
	
}
 a18:	df 91       	pop	r29
 a1a:	cf 91       	pop	r28
 a1c:	1f 91       	pop	r17
 a1e:	0f 91       	pop	r16
 a20:	ff 90       	pop	r15
 a22:	08 95       	ret

00000a24 <ateval_adctest>:
	
}

void ateval_adctest()
{
	print_full_line();
 a24:	78 dd       	rcall	.-1296   	; 0x516 <print_full_line>
	print_empty_line();
 a26:	75 dd       	rcall	.-1302   	; 0x512 <print_empty_line>
	//usart_putp(PSTR("#  Es wird nun das Potentiometer1 mit der Beschriftung R1 und das              #\n\r"));
	//usart_putp(PSTR("#  Potentiometer2 mit der Beschriftung R2 getestet.                             #\n\r"));
	
	print_text_to_line(PSTR("Es wird nun das Potentiometer1 mit der Beschriftung R1 und das"),'#','F');
 a28:	46 e4       	ldi	r20, 0x46	; 70
 a2a:	63 e2       	ldi	r22, 0x23	; 35
 a2c:	89 eb       	ldi	r24, 0xB9	; 185
 a2e:	92 e0       	ldi	r25, 0x02	; 2
 a30:	f3 dd       	rcall	.-1050   	; 0x618 <print_text_to_line>
	print_text_to_line(PSTR("Potentiometer2 mit der Beschriftung R2 getestet."),'#','F');
 a32:	46 e4       	ldi	r20, 0x46	; 70
 a34:	63 e2       	ldi	r22, 0x23	; 35
 a36:	88 ef       	ldi	r24, 0xF8	; 248
 a38:	92 e0       	ldi	r25, 0x02	; 2
 a3a:	ee dd       	rcall	.-1060   	; 0x618 <print_text_to_line>
	
	print_weiter_mit_enter();
 a3c:	58 dd       	rcall	.-1360   	; 0x4ee <print_weiter_mit_enter>
	print_full_line();
 a3e:	6b dd       	rcall	.-1322   	; 0x516 <print_full_line>
	wait_for_enter();
 a40:	12 dd       	rcall	.-1500   	; 0x466 <wait_for_enter>
	print_empty_lines();
 a42:	71 dd       	rcall	.-1310   	; 0x526 <print_empty_lines>
	adc_potentiometercheck(0);
 a44:	80 e0       	ldi	r24, 0x00	; 0
 a46:	08 df       	rcall	.-496    	; 0x858 <adc_potentiometercheck>
	adc_potentiometercheck(1);
 a48:	81 e0       	ldi	r24, 0x01	; 1
 a4a:	06 df       	rcall	.-500    	; 0x858 <adc_potentiometercheck>
	if(poti1_okay == Fehler || poti2_okay==Fehler)
 a4c:	80 91 62 00 	lds	r24, 0x0062
 a50:	81 30       	cpi	r24, 0x01	; 1
 a52:	21 f0       	breq	.+8      	; 0xa5c <ateval_adctest+0x38>
 a54:	80 91 61 00 	lds	r24, 0x0061
 a58:	81 30       	cpi	r24, 0x01	; 1
 a5a:	69 f4       	brne	.+26     	; 0xa76 <ateval_adctest+0x52>
	{
		print_empty_lines();
 a5c:	64 dd       	rcall	.-1336   	; 0x526 <print_empty_lines>
		print_full_line_error();
 a5e:	27 dd       	rcall	.-1458   	; 0x4ae <print_full_line_error>
		print_empty_line_error();
 a60:	56 dd       	rcall	.-1364   	; 0x50e <print_empty_line_error>
		
		print_text_to_line(PSTR("Es tut mir leid, aber der Potentioneter1 oder 2 haben einen Fehler,"),'!','F');
 a62:	46 e4       	ldi	r20, 0x46	; 70
 a64:	61 e2       	ldi	r22, 0x21	; 33
 a66:	89 e2       	ldi	r24, 0x29	; 41
 a68:	93 e0       	ldi	r25, 0x03	; 3
 a6a:	d6 dd       	rcall	.-1108   	; 0x618 <print_text_to_line>
		print_pruefen_sie_die_Platine();
 a6c:	f9 dd       	rcall	.-1038   	; 0x660 <print_pruefen_sie_die_Platine>
		
		print_empty_line_error();
 a6e:	4f dd       	rcall	.-1378   	; 0x50e <print_empty_line_error>
		print_weiter_mit_enter_error();
 a70:	3c dd       	rcall	.-1416   	; 0x4ea <print_weiter_mit_enter_error>
		print_full_line_error();
 a72:	1d dd       	rcall	.-1478   	; 0x4ae <print_full_line_error>
		wait_for_enter();
 a74:	f8 cc       	rjmp	.-1552   	; 0x466 <wait_for_enter>
 a76:	08 95       	ret

00000a78 <print_eins>:
	
}

void print_eins()
{
	print_text(PSTR("1"),'#','F');
 a78:	46 e4       	ldi	r20, 0x46	; 70
 a7a:	63 e2       	ldi	r22, 0x23	; 35
 a7c:	85 e8       	ldi	r24, 0x85	; 133
 a7e:	93 e0       	ldi	r25, 0x03	; 3
 a80:	80 cd       	rjmp	.-1280   	; 0x582 <print_text>

00000a82 <print_zwei>:
}

void print_zwei()
{
	print_text(PSTR("2"),'#','F');
 a82:	46 e4       	ldi	r20, 0x46	; 70
 a84:	63 e2       	ldi	r22, 0x23	; 35
 a86:	87 e8       	ldi	r24, 0x87	; 135
 a88:	93 e0       	ldi	r25, 0x03	; 3
 a8a:	7b cd       	rjmp	.-1290   	; 0x582 <print_text>

00000a8c <print_drei>:
}

void print_drei()
{
	print_text(PSTR("3"),'#','F');
 a8c:	46 e4       	ldi	r20, 0x46	; 70
 a8e:	63 e2       	ldi	r22, 0x23	; 35
 a90:	89 e8       	ldi	r24, 0x89	; 137
 a92:	93 e0       	ldi	r25, 0x03	; 3
 a94:	76 cd       	rjmp	.-1300   	; 0x582 <print_text>

00000a96 <print_okay_zf>:
	
}

void print_okay_zf()
{
	print_text(PSTR(": Okay"),'#','F');
 a96:	46 e4       	ldi	r20, 0x46	; 70
 a98:	63 e2       	ldi	r22, 0x23	; 35
 a9a:	8b e8       	ldi	r24, 0x8B	; 139
 a9c:	93 e0       	ldi	r25, 0x03	; 3
 a9e:	71 cd       	rjmp	.-1310   	; 0x582 <print_text>

00000aa0 <print_taster>:
}

void print_taster()
{
	print_text(PSTR("Taster"),'#','F');
 aa0:	46 e4       	ldi	r20, 0x46	; 70
 aa2:	63 e2       	ldi	r22, 0x23	; 35
 aa4:	82 e9       	ldi	r24, 0x92	; 146
 aa6:	93 e0       	ldi	r25, 0x03	; 3
 aa8:	6c cd       	rjmp	.-1320   	; 0x582 <print_text>

00000aaa <print_fehler>:
}

void print_fehler()
{
	print_text(PSTR(": Fehler"),'#','F');
 aaa:	46 e4       	ldi	r20, 0x46	; 70
 aac:	63 e2       	ldi	r22, 0x23	; 35
 aae:	89 e9       	ldi	r24, 0x99	; 153
 ab0:	93 e0       	ldi	r25, 0x03	; 3
 ab2:	67 cd       	rjmp	.-1330   	; 0x582 <print_text>

00000ab4 <print_led>:
}

void print_led()
{
	print_text(PSTR("Led"),'#','F');
 ab4:	46 e4       	ldi	r20, 0x46	; 70
 ab6:	63 e2       	ldi	r22, 0x23	; 35
 ab8:	82 ea       	ldi	r24, 0xA2	; 162
 aba:	93 e0       	ldi	r25, 0x03	; 3
 abc:	62 cd       	rjmp	.-1340   	; 0x582 <print_text>

00000abe <Zusammenfassung>:
}
void Zusammenfassung()
{
	for(uint8_t i=0;i<10;i++);
	{
		print_empty_lines();
 abe:	33 dd       	rcall	.-1434   	; 0x526 <print_empty_lines>
	}
		print_full_line();
 ac0:	2a dd       	rcall	.-1452   	; 0x516 <print_full_line>
		print_empty_line();
 ac2:	27 dd       	rcall	.-1458   	; 0x512 <print_empty_line>
		print_ehajo_danke();
 ac4:	c8 dd       	rcall	.-1136   	; 0x656 <print_ehajo_danke>
		print_text_to_line(PSTR("Zusammenfassung des Testlaufs"),'#','F');
 ac6:	46 e4       	ldi	r20, 0x46	; 70
 ac8:	63 e2       	ldi	r22, 0x23	; 35
 aca:	86 ea       	ldi	r24, 0xA6	; 166
 acc:	93 e0       	ldi	r25, 0x03	; 3
 ace:	a4 dd       	rcall	.-1208   	; 0x618 <print_text_to_line>
			
		//Taster 1
		print_taster();
 ad0:	e7 df       	rcall	.-50     	; 0xaa0 <print_taster>
		print_eins();
 ad2:	d2 df       	rcall	.-92     	; 0xa78 <print_eins>
		zeilenposition-=2;
 ad4:	80 91 71 00 	lds	r24, 0x0071
 ad8:	82 50       	subi	r24, 0x02	; 2
 ada:	80 93 71 00 	sts	0x0071, r24
		if(tater1_okay==Okay)
 ade:	80 91 67 00 	lds	r24, 0x0067
 ae2:	81 11       	cpse	r24, r1
 ae4:	02 c0       	rjmp	.+4      	; 0xaea <Zusammenfassung+0x2c>
		{
			print_okay_zf();
 ae6:	d7 df       	rcall	.-82     	; 0xa96 <print_okay_zf>
 ae8:	01 c0       	rjmp	.+2      	; 0xaec <Zusammenfassung+0x2e>
		
		}
		else
		{
			print_fehler();
 aea:	df df       	rcall	.-66     	; 0xaaa <print_fehler>
		}
		
		fill_line('#');
 aec:	83 e2       	ldi	r24, 0x23	; 35
 aee:	30 dd       	rcall	.-1440   	; 0x550 <fill_line>
				
		print_taster();
 af0:	d7 df       	rcall	.-82     	; 0xaa0 <print_taster>
		print_zwei();
 af2:	c7 df       	rcall	.-114    	; 0xa82 <print_zwei>
		zeilenposition-=2;
 af4:	80 91 71 00 	lds	r24, 0x0071
 af8:	82 50       	subi	r24, 0x02	; 2
 afa:	80 93 71 00 	sts	0x0071, r24
		if(tater2_okay==Okay)
 afe:	80 91 66 00 	lds	r24, 0x0066
 b02:	81 11       	cpse	r24, r1
 b04:	02 c0       	rjmp	.+4      	; 0xb0a <Zusammenfassung+0x4c>
		{
			print_okay_zf();
 b06:	c7 df       	rcall	.-114    	; 0xa96 <print_okay_zf>
 b08:	01 c0       	rjmp	.+2      	; 0xb0c <Zusammenfassung+0x4e>
			
		}
		else
		{
			print_fehler();
 b0a:	cf df       	rcall	.-98     	; 0xaaa <print_fehler>
		}
		
		fill_line('#');
 b0c:	83 e2       	ldi	r24, 0x23	; 35
 b0e:	20 dd       	rcall	.-1472   	; 0x550 <fill_line>
		print_taster();
 b10:	c7 df       	rcall	.-114    	; 0xaa0 <print_taster>
		print_drei();
 b12:	bc df       	rcall	.-136    	; 0xa8c <print_drei>
		if(tater3_okay==Okay)
 b14:	80 91 65 00 	lds	r24, 0x0065
 b18:	81 11       	cpse	r24, r1
 b1a:	02 c0       	rjmp	.+4      	; 0xb20 <Zusammenfassung+0x62>
		{
			print_okay_zf();
 b1c:	bc df       	rcall	.-136    	; 0xa96 <print_okay_zf>
 b1e:	01 c0       	rjmp	.+2      	; 0xb22 <Zusammenfassung+0x64>
			
		}
		else
		{
			print_fehler();
 b20:	c4 df       	rcall	.-120    	; 0xaaa <print_fehler>
		}
		                                                            
		zeilenposition-=2;
 b22:	80 91 71 00 	lds	r24, 0x0071
 b26:	82 50       	subi	r24, 0x02	; 2
 b28:	80 93 71 00 	sts	0x0071, r24
		fill_line('#');
 b2c:	83 e2       	ldi	r24, 0x23	; 35
 b2e:	10 dd       	rcall	.-1504   	; 0x550 <fill_line>
		print_led();
 b30:	c1 df       	rcall	.-126    	; 0xab4 <print_led>
		print_eins();
 b32:	a2 df       	rcall	.-188    	; 0xa78 <print_eins>
		if(led1_okay==Okay)
 b34:	80 91 64 00 	lds	r24, 0x0064
 b38:	81 11       	cpse	r24, r1
 b3a:	02 c0       	rjmp	.+4      	; 0xb40 <Zusammenfassung+0x82>
		{
			print_okay_zf();
 b3c:	ac df       	rcall	.-168    	; 0xa96 <print_okay_zf>
 b3e:	01 c0       	rjmp	.+2      	; 0xb42 <Zusammenfassung+0x84>
		}
		else
		{
			print_fehler();
 b40:	b4 df       	rcall	.-152    	; 0xaaa <print_fehler>
		}
		zeilenposition-=2;
 b42:	80 91 71 00 	lds	r24, 0x0071
 b46:	82 50       	subi	r24, 0x02	; 2
 b48:	80 93 71 00 	sts	0x0071, r24
		fill_line('#');
 b4c:	83 e2       	ldi	r24, 0x23	; 35
 b4e:	00 dd       	rcall	.-1536   	; 0x550 <fill_line>
		
		
		print_led();
 b50:	b1 df       	rcall	.-158    	; 0xab4 <print_led>
		print_zwei();
 b52:	97 df       	rcall	.-210    	; 0xa82 <print_zwei>
		if(led1_okay==Okay)
 b54:	80 91 64 00 	lds	r24, 0x0064
 b58:	81 11       	cpse	r24, r1
 b5a:	02 c0       	rjmp	.+4      	; 0xb60 <Zusammenfassung+0xa2>
		{
			print_okay_zf();
 b5c:	9c df       	rcall	.-200    	; 0xa96 <print_okay_zf>
 b5e:	01 c0       	rjmp	.+2      	; 0xb62 <Zusammenfassung+0xa4>
		}
		else
		{
			print_fehler();
 b60:	a4 df       	rcall	.-184    	; 0xaaa <print_fehler>
		}
		zeilenposition-=2;
 b62:	80 91 71 00 	lds	r24, 0x0071
 b66:	82 50       	subi	r24, 0x02	; 2
 b68:	80 93 71 00 	sts	0x0071, r24
		fill_line('#');
 b6c:	83 e2       	ldi	r24, 0x23	; 35
 b6e:	f0 dc       	rcall	.-1568   	; 0x550 <fill_line>
		
	
	
	print_text_to_line_start('#');
 b70:	83 e2       	ldi	r24, 0x23	; 35
 b72:	ea dc       	rcall	.-1580   	; 0x548 <print_text_to_line_start>
	print_potentiometer();
 b74:	7a dd       	rcall	.-1292   	; 0x66a <print_potentiometer>
	usart_puts(" 1");
 b76:	88 e6       	ldi	r24, 0x68	; 104
 b78:	90 e0       	ldi	r25, 0x00	; 0
 b7a:	6e d1       	rcall	.+732    	; 0xe58 <usart_puts>
	zeilenposition=16;
 b7c:	80 e1       	ldi	r24, 0x10	; 16
 b7e:	80 93 71 00 	sts	0x0071, r24
	if(poti1_okay==Okay)
 b82:	80 91 62 00 	lds	r24, 0x0062
 b86:	81 11       	cpse	r24, r1
 b88:	02 c0       	rjmp	.+4      	; 0xb8e <Zusammenfassung+0xd0>
	{
		print_okay_zf();
 b8a:	85 df       	rcall	.-246    	; 0xa96 <print_okay_zf>
 b8c:	01 c0       	rjmp	.+2      	; 0xb90 <Zusammenfassung+0xd2>
	}
	else
	{
		print_fehler();
 b8e:	8d df       	rcall	.-230    	; 0xaaa <print_fehler>
	}
	fill_line('#');
 b90:	83 e2       	ldi	r24, 0x23	; 35
 b92:	de dc       	rcall	.-1604   	; 0x550 <fill_line>
	
	
	print_text_to_line_start('#');
 b94:	83 e2       	ldi	r24, 0x23	; 35
 b96:	d8 dc       	rcall	.-1616   	; 0x548 <print_text_to_line_start>
	print_potentiometer();
 b98:	68 dd       	rcall	.-1328   	; 0x66a <print_potentiometer>
	usart_puts(" 2");
 b9a:	8b e6       	ldi	r24, 0x6B	; 107
 b9c:	90 e0       	ldi	r25, 0x00	; 0
 b9e:	5c d1       	rcall	.+696    	; 0xe58 <usart_puts>
	zeilenposition=16;
 ba0:	80 e1       	ldi	r24, 0x10	; 16
 ba2:	80 93 71 00 	sts	0x0071, r24
	if(poti2_okay==Okay)
 ba6:	80 91 61 00 	lds	r24, 0x0061
 baa:	81 11       	cpse	r24, r1
 bac:	02 c0       	rjmp	.+4      	; 0xbb2 <Zusammenfassung+0xf4>
	{
		print_okay_zf();
 bae:	73 df       	rcall	.-282    	; 0xa96 <print_okay_zf>
 bb0:	01 c0       	rjmp	.+2      	; 0xbb4 <Zusammenfassung+0xf6>
	}
	else
	{
		print_fehler();
 bb2:	7b df       	rcall	.-266    	; 0xaaa <print_fehler>
	}
		
	fill_line('#');
 bb4:	83 e2       	ldi	r24, 0x23	; 35
 bb6:	cc dc       	rcall	.-1640   	; 0x550 <fill_line>
		print_fehler();
	}
	fill_line('#');
	#endif
	
	if(speaker_okay==Okay)
 bb8:	80 91 60 00 	lds	r24, 0x0060
	{
		//usart_putp(PSTR("#  Lautsprecher: Okay                                                          #\n\r"));	
		print_text_to_line(PSTR("Lautsprecher: Okay"),'#','F');
 bbc:	46 e4       	ldi	r20, 0x46	; 70
 bbe:	63 e2       	ldi	r22, 0x23	; 35
		print_fehler();
	}
	fill_line('#');
	#endif
	
	if(speaker_okay==Okay)
 bc0:	81 11       	cpse	r24, r1
 bc2:	03 c0       	rjmp	.+6      	; 0xbca <Zusammenfassung+0x10c>
	{
		//usart_putp(PSTR("#  Lautsprecher: Okay                                                          #\n\r"));	
		print_text_to_line(PSTR("Lautsprecher: Okay"),'#','F');
 bc4:	84 ec       	ldi	r24, 0xC4	; 196
 bc6:	93 e0       	ldi	r25, 0x03	; 3
 bc8:	02 c0       	rjmp	.+4      	; 0xbce <Zusammenfassung+0x110>
	}
	else
	{
		//usart_putp(PSTR("#  Lautsprecher: Fehler                                                        #\n\r"));	
		print_text_to_line(PSTR("Lautsprecher: Fehler"),'#','F');
 bca:	87 ed       	ldi	r24, 0xD7	; 215
 bcc:	93 e0       	ldi	r25, 0x03	; 3
 bce:	24 dd       	rcall	.-1464   	; 0x618 <print_text_to_line>
	}
	
	print_empty_line();
 bd0:	a0 dc       	rcall	.-1728   	; 0x512 <print_empty_line>
	print_full_line();
 bd2:	a1 dc       	rcall	.-1726   	; 0x516 <print_full_line>
	print_empty_lines();
 bd4:	a8 dc       	rcall	.-1712   	; 0x526 <print_empty_lines>
	print_empty_lines();
 bd6:	a7 cc       	rjmp	.-1714   	; 0x526 <print_empty_lines>

00000bd8 <ateval_consoletest>:
	usart_pute(string5);
}

void ateval_consoletest()
{
	Set_RX_Hook(read_from_uart);
 bd8:	8f e2       	ldi	r24, 0x2F	; 47
 bda:	92 e0       	ldi	r25, 0x02	; 2
 bdc:	d7 d0       	rcall	.+430    	; 0xd8c <Set_RX_Hook>
	//Begrungstext
	print_full_line();
 bde:	9b dc       	rcall	.-1738   	; 0x516 <print_full_line>
	print_ehajo_danke();
 be0:	3a dd       	rcall	.-1420   	; 0x656 <print_ehajo_danke>
	print_text_to_line(PSTR("Mit diesem kleinen Programm kann nun die gerade aufgebaute Hardware getestetwerden. "),'#','F');
 be2:	46 e4       	ldi	r20, 0x46	; 70
 be4:	63 e2       	ldi	r22, 0x23	; 35
 be6:	80 ea       	ldi	r24, 0xA0	; 160
 be8:	90 e0       	ldi	r25, 0x00	; 0
 bea:	16 dd       	rcall	.-1492   	; 0x618 <print_text_to_line>
	print_empty_line();
 bec:	92 dc       	rcall	.-1756   	; 0x512 <print_empty_line>
	print_weiter_mit_enter();
 bee:	7f dc       	rcall	.-1794   	; 0x4ee <print_weiter_mit_enter>
	print_full_line();
 bf0:	92 dc       	rcall	.-1756   	; 0x516 <print_full_line>
	print_empty_lines();
 bf2:	99 dc       	rcall	.-1742   	; 0x526 <print_empty_lines>
	if(wait_for_key()!=13)
 bf4:	3f dc       	rcall	.-1922   	; 0x474 <wait_for_key>
 bf6:	8d 30       	cpi	r24, 0x0D	; 13
 bf8:	09 f0       	breq	.+2      	; 0xbfc <ateval_consoletest+0x24>
	{
		Delete_RX_Hook();
 bfa:	ce c0       	rjmp	.+412    	; 0xd98 <Delete_RX_Hook>
	}
	else
	{
		
		Test_Taster();
 bfc:	7c dd       	rcall	.-1288   	; 0x6f6 <Test_Taster>
		Test_Leds();
 bfe:	38 dd       	rcall	.-1424   	; 0x670 <Test_Leds>
		ateval_adctest();
 c00:	11 df       	rcall	.-478    	; 0xa24 <ateval_adctest>
		
		#if i2c_active > 0
		ateval_i2ctest();
		#endif
		
		ateval_speaktest();
 c02:	fb dd       	rcall	.-1034   	; 0x7fa <ateval_speaktest>
		
		Zusammenfassung();
 c04:	5c cf       	rjmp	.-328    	; 0xabe <Zusammenfassung>

00000c06 <main>:
 c06:	cf 93       	push	r28
 c08:	df 93       	push	r29
 c0a:	00 d0       	rcall	.+0      	; 0xc0c <main+0x6>
 c0c:	00 d0       	rcall	.+0      	; 0xc0e <main+0x8>
 c0e:	00 d0       	rcall	.+0      	; 0xc10 <main+0xa>
 c10:	cd b7       	in	r28, 0x3d	; 61
 c12:	de b7       	in	r29, 0x3e	; 62
 c14:	8c e0       	ldi	r24, 0x0C	; 12
 c16:	90 e0       	ldi	r25, 0x00	; 0
 c18:	9a 83       	std	Y+2, r25	; 0x02
 c1a:	89 83       	std	Y+1, r24	; 0x01
 c1c:	81 e0       	ldi	r24, 0x01	; 1
 c1e:	8b 83       	std	Y+3, r24	; 0x03
 c20:	83 e0       	ldi	r24, 0x03	; 3
 c22:	8c 83       	std	Y+4, r24	; 0x04
 c24:	1d 82       	std	Y+5, r1	; 0x05
 c26:	1e 82       	std	Y+6, r1	; 0x06
 c28:	ce 01       	movw	r24, r28
 c2a:	01 96       	adiw	r24, 0x01	; 1
 c2c:	e6 d0       	rcall	.+460    	; 0xdfa <usart_init>
 c2e:	0f d0       	rcall	.+30     	; 0xc4e <GPIO_Init>
 c30:	f9 db       	rcall	.-2062   	; 0x424 <adc_init>
 c32:	78 94       	sei
 c34:	d1 df       	rcall	.-94     	; 0xbd8 <ateval_consoletest>
 c36:	f8 94       	cli
 c38:	ff cf       	rjmp	.-2      	; 0xc38 <main+0x32>

00000c3a <__vector_default>:
 c3a:	1f 92       	push	r1
 c3c:	0f 92       	push	r0
 c3e:	0f b6       	in	r0, 0x3f	; 63
 c40:	0f 92       	push	r0
 c42:	11 24       	eor	r1, r1
 c44:	0f 90       	pop	r0
 c46:	0f be       	out	0x3f, r0	; 63
 c48:	0f 90       	pop	r0
 c4a:	1f 90       	pop	r1
 c4c:	18 95       	reti

00000c4e <GPIO_Init>:
 c4e:	11 ba       	out	0x11, r1	; 17
 c50:	12 ba       	out	0x12, r1	; 18
 c52:	81 b3       	in	r24, 0x11	; 17
 c54:	80 6e       	ori	r24, 0xE0	; 224
 c56:	81 bb       	out	0x11, r24	; 17
 c58:	82 b3       	in	r24, 0x12	; 18
 c5a:	8c 61       	ori	r24, 0x1C	; 28
 c5c:	82 bb       	out	0x12, r24	; 18
 c5e:	08 95       	ret

00000c60 <Set_Led1>:
 c60:	81 11       	cpse	r24, r1
 c62:	02 c0       	rjmp	.+4      	; 0xc68 <Set_Led1+0x8>
 c64:	96 98       	cbi	0x12, 6	; 18
 c66:	08 95       	ret
 c68:	96 9a       	sbi	0x12, 6	; 18
 c6a:	08 95       	ret

00000c6c <Set_Led2>:
 c6c:	81 11       	cpse	r24, r1
 c6e:	02 c0       	rjmp	.+4      	; 0xc74 <Set_Led2+0x8>
 c70:	95 98       	cbi	0x12, 5	; 18
 c72:	08 95       	ret
 c74:	95 9a       	sbi	0x12, 5	; 18
 c76:	08 95       	ret

00000c78 <Get_Taster1>:
 c78:	20 b3       	in	r18, 0x10	; 16
 c7a:	22 fb       	bst	r18, 2
 c7c:	88 27       	eor	r24, r24
 c7e:	80 f9       	bld	r24, 0
 c80:	90 e0       	ldi	r25, 0x00	; 0
 c82:	21 e0       	ldi	r18, 0x01	; 1
 c84:	82 27       	eor	r24, r18
 c86:	81 70       	andi	r24, 0x01	; 1
 c88:	08 95       	ret

00000c8a <Get_Taster2>:
 c8a:	20 b3       	in	r18, 0x10	; 16
 c8c:	23 fb       	bst	r18, 3
 c8e:	88 27       	eor	r24, r24
 c90:	80 f9       	bld	r24, 0
 c92:	90 e0       	ldi	r25, 0x00	; 0
 c94:	21 e0       	ldi	r18, 0x01	; 1
 c96:	82 27       	eor	r24, r18
 c98:	81 70       	andi	r24, 0x01	; 1
 c9a:	08 95       	ret

00000c9c <Get_Taster3>:
 c9c:	20 b3       	in	r18, 0x10	; 16
 c9e:	24 fb       	bst	r18, 4
 ca0:	88 27       	eor	r24, r24
 ca2:	80 f9       	bld	r24, 0
 ca4:	90 e0       	ldi	r25, 0x00	; 0
 ca6:	21 e0       	ldi	r18, 0x01	; 1
 ca8:	82 27       	eor	r24, r18
 caa:	81 70       	andi	r24, 0x01	; 1
 cac:	08 95       	ret

00000cae <__vector_12>:
 cae:	1f 92       	push	r1
 cb0:	0f 92       	push	r0
 cb2:	0f b6       	in	r0, 0x3f	; 63
 cb4:	0f 92       	push	r0
 cb6:	11 24       	eor	r1, r1
 cb8:	2f 93       	push	r18
 cba:	3f 93       	push	r19
 cbc:	4f 93       	push	r20
 cbe:	5f 93       	push	r21
 cc0:	6f 93       	push	r22
 cc2:	7f 93       	push	r23
 cc4:	8f 93       	push	r24
 cc6:	9f 93       	push	r25
 cc8:	af 93       	push	r26
 cca:	bf 93       	push	r27
 ccc:	ef 93       	push	r30
 cce:	ff 93       	push	r31
 cd0:	e0 91 72 00 	lds	r30, 0x0072
 cd4:	f0 91 73 00 	lds	r31, 0x0073
 cd8:	09 95       	icall
 cda:	ff 91       	pop	r31
 cdc:	ef 91       	pop	r30
 cde:	bf 91       	pop	r27
 ce0:	af 91       	pop	r26
 ce2:	9f 91       	pop	r25
 ce4:	8f 91       	pop	r24
 ce6:	7f 91       	pop	r23
 ce8:	6f 91       	pop	r22
 cea:	5f 91       	pop	r21
 cec:	4f 91       	pop	r20
 cee:	3f 91       	pop	r19
 cf0:	2f 91       	pop	r18
 cf2:	0f 90       	pop	r0
 cf4:	0f be       	out	0x3f, r0	; 63
 cf6:	0f 90       	pop	r0
 cf8:	1f 90       	pop	r1
 cfa:	18 95       	reti

00000cfc <__vector_6>:
 cfc:	1f 92       	push	r1
 cfe:	0f 92       	push	r0
 d00:	0f b6       	in	r0, 0x3f	; 63
 d02:	0f 92       	push	r0
 d04:	11 24       	eor	r1, r1
 d06:	2f 93       	push	r18
 d08:	3f 93       	push	r19
 d0a:	4f 93       	push	r20
 d0c:	5f 93       	push	r21
 d0e:	6f 93       	push	r22
 d10:	7f 93       	push	r23
 d12:	8f 93       	push	r24
 d14:	9f 93       	push	r25
 d16:	af 93       	push	r26
 d18:	bf 93       	push	r27
 d1a:	ef 93       	push	r30
 d1c:	ff 93       	push	r31
 d1e:	e0 91 74 00 	lds	r30, 0x0074
 d22:	f0 91 75 00 	lds	r31, 0x0075
 d26:	09 95       	icall
 d28:	ff 91       	pop	r31
 d2a:	ef 91       	pop	r30
 d2c:	bf 91       	pop	r27
 d2e:	af 91       	pop	r26
 d30:	9f 91       	pop	r25
 d32:	8f 91       	pop	r24
 d34:	7f 91       	pop	r23
 d36:	6f 91       	pop	r22
 d38:	5f 91       	pop	r21
 d3a:	4f 91       	pop	r20
 d3c:	3f 91       	pop	r19
 d3e:	2f 91       	pop	r18
 d40:	0f 90       	pop	r0
 d42:	0f be       	out	0x3f, r0	; 63
 d44:	0f 90       	pop	r0
 d46:	1f 90       	pop	r1
 d48:	18 95       	reti

00000d4a <__vector_7>:
 d4a:	1f 92       	push	r1
 d4c:	0f 92       	push	r0
 d4e:	0f b6       	in	r0, 0x3f	; 63
 d50:	0f 92       	push	r0
 d52:	11 24       	eor	r1, r1
 d54:	8f 93       	push	r24
 d56:	82 b3       	in	r24, 0x12	; 18
 d58:	80 58       	subi	r24, 0x80	; 128
 d5a:	82 bb       	out	0x12, r24	; 18
 d5c:	8f 91       	pop	r24
 d5e:	0f 90       	pop	r0
 d60:	0f be       	out	0x3f, r0	; 63
 d62:	0f 90       	pop	r0
 d64:	1f 90       	pop	r1
 d66:	18 95       	reti

00000d68 <play_tone>:
 d68:	88 ee       	ldi	r24, 0xE8	; 232
 d6a:	93 e0       	ldi	r25, 0x03	; 3
 d6c:	22 b3       	in	r18, 0x12	; 18
 d6e:	20 58       	subi	r18, 0x80	; 128
 d70:	22 bb       	out	0x12, r18	; 18
 d72:	e3 ef       	ldi	r30, 0xF3	; 243
 d74:	f1 e0       	ldi	r31, 0x01	; 1
 d76:	31 97       	sbiw	r30, 0x01	; 1
 d78:	f1 f7       	brne	.-4      	; 0xd76 <play_tone+0xe>
 d7a:	00 c0       	rjmp	.+0      	; 0xd7c <play_tone+0x14>
 d7c:	00 00       	nop
 d7e:	01 97       	sbiw	r24, 0x01	; 1
 d80:	a9 f7       	brne	.-22     	; 0xd6c <play_tone+0x4>
 d82:	08 95       	ret

00000d84 <usart_putc>:
 d84:	5d 9b       	sbis	0x0b, 5	; 11
 d86:	fe cf       	rjmp	.-4      	; 0xd84 <usart_putc>
 d88:	8c b9       	out	0x0c, r24	; 12
 d8a:	08 95       	ret

00000d8c <Set_RX_Hook>:
 d8c:	90 93 7d 00 	sts	0x007D, r25
 d90:	80 93 7c 00 	sts	0x007C, r24
 d94:	57 9a       	sbi	0x0a, 7	; 10
 d96:	08 95       	ret

00000d98 <Delete_RX_Hook>:
 d98:	57 98       	cbi	0x0a, 7	; 10
 d9a:	10 92 7d 00 	sts	0x007D, r1
 d9e:	10 92 7c 00 	sts	0x007C, r1
 da2:	08 95       	ret

00000da4 <__vector_11>:
 da4:	1f 92       	push	r1
 da6:	0f 92       	push	r0
 da8:	0f b6       	in	r0, 0x3f	; 63
 daa:	0f 92       	push	r0
 dac:	11 24       	eor	r1, r1
 dae:	2f 93       	push	r18
 db0:	3f 93       	push	r19
 db2:	4f 93       	push	r20
 db4:	5f 93       	push	r21
 db6:	6f 93       	push	r22
 db8:	7f 93       	push	r23
 dba:	8f 93       	push	r24
 dbc:	9f 93       	push	r25
 dbe:	af 93       	push	r26
 dc0:	bf 93       	push	r27
 dc2:	ef 93       	push	r30
 dc4:	ff 93       	push	r31
 dc6:	e0 91 7c 00 	lds	r30, 0x007C
 dca:	f0 91 7d 00 	lds	r31, 0x007D
 dce:	30 97       	sbiw	r30, 0x00	; 0
 dd0:	11 f0       	breq	.+4      	; 0xdd6 <__vector_11+0x32>
 dd2:	09 95       	icall
 dd4:	01 c0       	rjmp	.+2      	; 0xdd8 <__vector_11+0x34>
 dd6:	8c b1       	in	r24, 0x0c	; 12
 dd8:	ff 91       	pop	r31
 dda:	ef 91       	pop	r30
 ddc:	bf 91       	pop	r27
 dde:	af 91       	pop	r26
 de0:	9f 91       	pop	r25
 de2:	8f 91       	pop	r24
 de4:	7f 91       	pop	r23
 de6:	6f 91       	pop	r22
 de8:	5f 91       	pop	r21
 dea:	4f 91       	pop	r20
 dec:	3f 91       	pop	r19
 dee:	2f 91       	pop	r18
 df0:	0f 90       	pop	r0
 df2:	0f be       	out	0x3f, r0	; 63
 df4:	0f 90       	pop	r0
 df6:	1f 90       	pop	r1
 df8:	18 95       	reti

00000dfa <usart_init>:
 dfa:	fc 01       	movw	r30, r24
 dfc:	90 81       	ld	r25, Z
 dfe:	81 81       	ldd	r24, Z+1	; 0x01
 e00:	99 b9       	out	0x09, r25	; 9
 e02:	80 bd       	out	0x20, r24	; 32
 e04:	88 e1       	ldi	r24, 0x18	; 24
 e06:	8a b9       	out	0x0a, r24	; 10
 e08:	80 e8       	ldi	r24, 0x80	; 128
 e0a:	80 bd       	out	0x20, r24	; 32
 e0c:	a4 81       	ldd	r26, Z+4	; 0x04
 e0e:	a1 50       	subi	r26, 0x01	; 1
 e10:	a2 30       	cpi	r26, 0x02	; 2
 e12:	28 f4       	brcc	.+10     	; 0xe1e <usart_init+0x24>
 e14:	b0 e0       	ldi	r27, 0x00	; 0
 e16:	a2 59       	subi	r26, 0x92	; 146
 e18:	bf 4f       	sbci	r27, 0xFF	; 255
 e1a:	8c 91       	ld	r24, X
 e1c:	01 c0       	rjmp	.+2      	; 0xe20 <usart_init+0x26>
 e1e:	80 e8       	ldi	r24, 0x80	; 128
 e20:	93 81       	ldd	r25, Z+3	; 0x03
 e22:	92 30       	cpi	r25, 0x02	; 2
 e24:	61 f0       	breq	.+24     	; 0xe3e <usart_init+0x44>
 e26:	28 f4       	brcc	.+10     	; 0xe32 <usart_init+0x38>
 e28:	99 23       	and	r25, r25
 e2a:	71 f0       	breq	.+28     	; 0xe48 <usart_init+0x4e>
 e2c:	91 30       	cpi	r25, 0x01	; 1
 e2e:	59 f4       	brne	.+22     	; 0xe46 <usart_init+0x4c>
 e30:	08 c0       	rjmp	.+16     	; 0xe42 <usart_init+0x48>
 e32:	93 30       	cpi	r25, 0x03	; 3
 e34:	41 f0       	breq	.+16     	; 0xe46 <usart_init+0x4c>
 e36:	94 30       	cpi	r25, 0x04	; 4
 e38:	31 f4       	brne	.+12     	; 0xe46 <usart_init+0x4c>
 e3a:	86 60       	ori	r24, 0x06	; 6
 e3c:	04 c0       	rjmp	.+8      	; 0xe46 <usart_init+0x4c>
 e3e:	84 60       	ori	r24, 0x04	; 4
 e40:	03 c0       	rjmp	.+6      	; 0xe48 <usart_init+0x4e>
 e42:	82 60       	ori	r24, 0x02	; 2
 e44:	01 c0       	rjmp	.+2      	; 0xe48 <usart_init+0x4e>
 e46:	86 60       	ori	r24, 0x06	; 6
 e48:	80 bd       	out	0x20, r24	; 32
 e4a:	82 81       	ldd	r24, Z+2	; 0x02
 e4c:	88 23       	and	r24, r24
 e4e:	11 f0       	breq	.+4      	; 0xe54 <usart_init+0x5a>
 e50:	59 9a       	sbi	0x0b, 1	; 11
 e52:	08 95       	ret
 e54:	59 98       	cbi	0x0b, 1	; 11
 e56:	08 95       	ret

00000e58 <usart_puts>:
 e58:	cf 93       	push	r28
 e5a:	df 93       	push	r29
 e5c:	ec 01       	movw	r28, r24
 e5e:	01 c0       	rjmp	.+2      	; 0xe62 <usart_puts+0xa>
 e60:	91 df       	rcall	.-222    	; 0xd84 <usart_putc>
 e62:	89 91       	ld	r24, Y+
 e64:	81 11       	cpse	r24, r1
 e66:	fc cf       	rjmp	.-8      	; 0xe60 <usart_puts+0x8>
 e68:	df 91       	pop	r29
 e6a:	cf 91       	pop	r28
 e6c:	08 95       	ret

00000e6e <usart_pute>:
 e6e:	cf 93       	push	r28
 e70:	df 93       	push	r29
 e72:	ec 01       	movw	r28, r24
 e74:	01 c0       	rjmp	.+2      	; 0xe78 <usart_pute+0xa>
 e76:	86 df       	rcall	.-244    	; 0xd84 <usart_putc>
 e78:	ce 01       	movw	r24, r28
 e7a:	13 d0       	rcall	.+38     	; 0xea2 <__eerd_byte_m8a>
 e7c:	21 96       	adiw	r28, 0x01	; 1
 e7e:	81 11       	cpse	r24, r1
 e80:	fa cf       	rjmp	.-12     	; 0xe76 <usart_pute+0x8>
 e82:	df 91       	pop	r29
 e84:	cf 91       	pop	r28
 e86:	08 95       	ret

00000e88 <usart_putp>:
 e88:	cf 93       	push	r28
 e8a:	df 93       	push	r29
 e8c:	ec 01       	movw	r28, r24
 e8e:	fe 01       	movw	r30, r28
 e90:	84 91       	lpm	r24, Z
 e92:	21 96       	adiw	r28, 0x01	; 1
 e94:	88 23       	and	r24, r24
 e96:	11 f0       	breq	.+4      	; 0xe9c <usart_putp+0x14>
 e98:	75 df       	rcall	.-278    	; 0xd84 <usart_putc>
 e9a:	f9 cf       	rjmp	.-14     	; 0xe8e <usart_putp+0x6>
 e9c:	df 91       	pop	r29
 e9e:	cf 91       	pop	r28
 ea0:	08 95       	ret

00000ea2 <__eerd_byte_m8a>:
 ea2:	e1 99       	sbic	0x1c, 1	; 28
 ea4:	fe cf       	rjmp	.-4      	; 0xea2 <__eerd_byte_m8a>
 ea6:	9f bb       	out	0x1f, r25	; 31
 ea8:	8e bb       	out	0x1e, r24	; 30
 eaa:	e0 9a       	sbi	0x1c, 0	; 28
 eac:	99 27       	eor	r25, r25
 eae:	8d b3       	in	r24, 0x1d	; 29
 eb0:	08 95       	ret

00000eb2 <_exit>:
 eb2:	f8 94       	cli

00000eb4 <__stop_program>:
 eb4:	ff cf       	rjmp	.-2      	; 0xeb4 <__stop_program>
